
mbed_cc3000.elf:     file format elf32-littlearm


Disassembly of section .isr_vector:

00000000 <__isr_vector>:
   0:	20003000 	andcs	r3, r0, r0
   4:	000000c1 	andeq	r0, r0, r1, asr #1
   8:	0000153d 	andeq	r1, r0, sp, lsr r5
   c:	0000154f 	andeq	r1, r0, pc, asr #10
	...
  2c:	00001551 	andeq	r1, r0, r1, asr r5
	...
  38:	00001553 	andeq	r1, r0, r3, asr r5
  3c:	00001555 	andeq	r1, r0, r5, asr r5
  40:	00001557 	andeq	r1, r0, r7, asr r5
  44:	00001557 	andeq	r1, r0, r7, asr r5
  48:	00001557 	andeq	r1, r0, r7, asr r5
  4c:	00001557 	andeq	r1, r0, r7, asr r5
  50:	00001557 	andeq	r1, r0, r7, asr r5
  54:	00001557 	andeq	r1, r0, r7, asr r5
  58:	00001557 	andeq	r1, r0, r7, asr r5
  5c:	00001557 	andeq	r1, r0, r7, asr r5
  60:	00001557 	andeq	r1, r0, r7, asr r5
  64:	00001557 	andeq	r1, r0, r7, asr r5
  68:	00001557 	andeq	r1, r0, r7, asr r5
  6c:	00001557 	andeq	r1, r0, r7, asr r5
  70:	00001557 	andeq	r1, r0, r7, asr r5
  74:	00001557 	andeq	r1, r0, r7, asr r5
  78:	00001557 	andeq	r1, r0, r7, asr r5
  7c:	00001557 	andeq	r1, r0, r7, asr r5
  80:	00001557 	andeq	r1, r0, r7, asr r5
  84:	00001557 	andeq	r1, r0, r7, asr r5
  88:	00001557 	andeq	r1, r0, r7, asr r5
  8c:	00001557 	andeq	r1, r0, r7, asr r5
  90:	00001557 	andeq	r1, r0, r7, asr r5
  94:	00001557 	andeq	r1, r0, r7, asr r5
  98:	00001557 	andeq	r1, r0, r7, asr r5
  9c:	00001557 	andeq	r1, r0, r7, asr r5
  a0:	00001557 	andeq	r1, r0, r7, asr r5
  a4:	00001557 	andeq	r1, r0, r7, asr r5
  a8:	00001557 	andeq	r1, r0, r7, asr r5
  ac:	00001557 	andeq	r1, r0, r7, asr r5
  b0:	00001557 	andeq	r1, r0, r7, asr r5
  b4:	00001557 	andeq	r1, r0, r7, asr r5
  b8:	000013bd 			; <UNDEFINED> instruction: 0x000013bd
  bc:	00001557 	andeq	r1, r0, r7, asr r5

000000c0 <Reset_Handler>:
  c0:	4907      	ldr	r1, [pc, #28]	; (e0 <Reset_Handler+0x20>)
  c2:	4a08      	ldr	r2, [pc, #32]	; (e4 <Reset_Handler+0x24>)
  c4:	4b08      	ldr	r3, [pc, #32]	; (e8 <Reset_Handler+0x28>)
  c6:	1a9b      	subs	r3, r3, r2
  c8:	dd05      	ble.n	d6 <Reset_Handler+0x16>
  ca:	2400      	movs	r4, #0
  cc:	5908      	ldr	r0, [r1, r4]
  ce:	5110      	str	r0, [r2, r4]
  d0:	3404      	adds	r4, #4
  d2:	429c      	cmp	r4, r3
  d4:	dbfa      	blt.n	cc <Reset_Handler+0xc>
  d6:	4805      	ldr	r0, [pc, #20]	; (ec <Reset_Handler+0x2c>)
  d8:	4780      	blx	r0
  da:	4805      	ldr	r0, [pc, #20]	; (f0 <Reset_Handler+0x30>)
  dc:	4700      	bx	r0
  de:	8fdc0000 	svchi	0x00dc0000
  e2:	f0c00000 			; <UNDEFINED> instruction: 0xf0c00000
  e6:	f1801fff 			; <UNDEFINED> instruction: 0xf1801fff
  ea:	14911fff 	ldrne	r1, [r1], #4095	; 0xfff
  ee:	04710000 	ldrbteq	r0, [r1], #-0
	...

Disassembly of section .flash_protect:

00000400 <kinetis_flash_config>:
 400:	ffffffff 			; <UNDEFINED> instruction: 0xffffffff
 404:	ffffffff 			; <UNDEFINED> instruction: 0xffffffff
 408:	ffffffff 			; <UNDEFINED> instruction: 0xffffffff
 40c:	fffffffe 			; <UNDEFINED> instruction: 0xfffffffe

Disassembly of section .text:

00000410 <__do_global_dtors_aux>:
     410:	b510      	push	{r4, lr}
     412:	4c06      	ldr	r4, [pc, #24]	; (42c <__do_global_dtors_aux+0x1c>)
     414:	7823      	ldrb	r3, [r4, #0]
     416:	2b00      	cmp	r3, #0
     418:	d107      	bne.n	42a <__do_global_dtors_aux+0x1a>
     41a:	4b05      	ldr	r3, [pc, #20]	; (430 <__do_global_dtors_aux+0x20>)
     41c:	2b00      	cmp	r3, #0
     41e:	d002      	beq.n	426 <__do_global_dtors_aux+0x16>
     420:	4804      	ldr	r0, [pc, #16]	; (434 <__do_global_dtors_aux+0x24>)
     422:	e000      	b.n	426 <__do_global_dtors_aux+0x16>
     424:	bf00      	nop
     426:	2301      	movs	r3, #1
     428:	7023      	strb	r3, [r4, #0]
     42a:	bd10      	pop	{r4, pc}
     42c:	1ffff180 	svcne	0x00fff180
     430:	00000000 	andeq	r0, r0, r0
     434:	00008fd0 	ldrdeq	r8, [r0], -r0

00000438 <frame_dummy>:
     438:	b508      	push	{r3, lr}
     43a:	4b08      	ldr	r3, [pc, #32]	; (45c <frame_dummy+0x24>)
     43c:	2b00      	cmp	r3, #0
     43e:	d003      	beq.n	448 <frame_dummy+0x10>
     440:	4807      	ldr	r0, [pc, #28]	; (460 <frame_dummy+0x28>)
     442:	4908      	ldr	r1, [pc, #32]	; (464 <frame_dummy+0x2c>)
     444:	e000      	b.n	448 <frame_dummy+0x10>
     446:	bf00      	nop
     448:	4807      	ldr	r0, [pc, #28]	; (468 <frame_dummy+0x30>)
     44a:	6803      	ldr	r3, [r0, #0]
     44c:	2b00      	cmp	r3, #0
     44e:	d003      	beq.n	458 <frame_dummy+0x20>
     450:	4b06      	ldr	r3, [pc, #24]	; (46c <frame_dummy+0x34>)
     452:	2b00      	cmp	r3, #0
     454:	d000      	beq.n	458 <frame_dummy+0x20>
     456:	4798      	blx	r3
     458:	bd08      	pop	{r3, pc}
     45a:	46c0      	nop			; (mov r8, r8)
     45c:	00000000 	andeq	r0, r0, r0
     460:	00008fd0 	ldrdeq	r8, [r0], -r0
     464:	1ffff184 	svcne	0x00fff184
     468:	1ffff180 	svcne	0x00fff180
     46c:	00000000 	andeq	r0, r0, r0

00000470 <_mainCRTStartup>:
     470:	4b16      	ldr	r3, [pc, #88]	; (4cc <_mainCRTStartup+0x5c>)
     472:	2b00      	cmp	r3, #0
     474:	d100      	bne.n	478 <_mainCRTStartup+0x8>
     476:	4b14      	ldr	r3, [pc, #80]	; (4c8 <_mainCRTStartup+0x58>)
     478:	469d      	mov	sp, r3
     47a:	2240      	movs	r2, #64	; 0x40
     47c:	0292      	lsls	r2, r2, #10
     47e:	1a9a      	subs	r2, r3, r2
     480:	4692      	mov	sl, r2
     482:	2100      	movs	r1, #0
     484:	468b      	mov	fp, r1
     486:	460f      	mov	r7, r1
     488:	4813      	ldr	r0, [pc, #76]	; (4d8 <_mainCRTStartup+0x68>)
     48a:	4a14      	ldr	r2, [pc, #80]	; (4dc <_mainCRTStartup+0x6c>)
     48c:	1a12      	subs	r2, r2, r0
     48e:	f002 f870 	bl	2572 <memset>
     492:	4b0f      	ldr	r3, [pc, #60]	; (4d0 <_mainCRTStartup+0x60>)
     494:	2b00      	cmp	r3, #0
     496:	d000      	beq.n	49a <_mainCRTStartup+0x2a>
     498:	4798      	blx	r3
     49a:	4b0e      	ldr	r3, [pc, #56]	; (4d4 <_mainCRTStartup+0x64>)
     49c:	2b00      	cmp	r3, #0
     49e:	d000      	beq.n	4a2 <_mainCRTStartup+0x32>
     4a0:	4798      	blx	r3
     4a2:	2000      	movs	r0, #0
     4a4:	2100      	movs	r1, #0
     4a6:	0004      	movs	r4, r0
     4a8:	000d      	movs	r5, r1
     4aa:	480d      	ldr	r0, [pc, #52]	; (4e0 <_mainCRTStartup+0x70>)
     4ac:	2800      	cmp	r0, #0
     4ae:	d002      	beq.n	4b6 <_mainCRTStartup+0x46>
     4b0:	480c      	ldr	r0, [pc, #48]	; (4e4 <_mainCRTStartup+0x74>)
     4b2:	e000      	b.n	4b6 <_mainCRTStartup+0x46>
     4b4:	bf00      	nop
     4b6:	f002 f823 	bl	2500 <__libc_init_array>
     4ba:	0020      	movs	r0, r4
     4bc:	0029      	movs	r1, r5
     4be:	f000 f815 	bl	4ec <main>
     4c2:	f001 fb87 	bl	1bd4 <exit>
     4c6:	46c0      	nop			; (mov r8, r8)
     4c8:	00080000 	andeq	r0, r8, r0
     4cc:	20003000 	andcs	r3, r0, r0
	...
     4d8:	1ffff180 	svcne	0x00fff180
     4dc:	1ffff428 	svcne	0x00fff428
	...

000004e8 <CC3000_UsynchCallback>:
     4e8:	4770      	bx	lr
	...

000004ec <main>:
     4ec:	b51f      	push	{r0, r1, r2, r3, r4, lr}
     4ee:	4812      	ldr	r0, [pc, #72]	; (538 <main+0x4c>)
     4f0:	f002 f960 	bl	27b4 <puts>
     4f4:	f000 ffaa 	bl	144c <board_init>
     4f8:	4810      	ldr	r0, [pc, #64]	; (53c <main+0x50>)
     4fa:	f002 f95b 	bl	27b4 <puts>
     4fe:	f000 fd01 	bl	f04 <init_spi>
     502:	480f      	ldr	r0, [pc, #60]	; (540 <main+0x54>)
     504:	f002 f956 	bl	27b4 <puts>
     508:	4b0e      	ldr	r3, [pc, #56]	; (544 <main+0x58>)
     50a:	490f      	ldr	r1, [pc, #60]	; (548 <main+0x5c>)
     50c:	9300      	str	r3, [sp, #0]
     50e:	4b0f      	ldr	r3, [pc, #60]	; (54c <main+0x60>)
     510:	4a0f      	ldr	r2, [pc, #60]	; (550 <main+0x64>)
     512:	9301      	str	r3, [sp, #4]
     514:	4b0f      	ldr	r3, [pc, #60]	; (554 <main+0x68>)
     516:	4810      	ldr	r0, [pc, #64]	; (558 <main+0x6c>)
     518:	9302      	str	r3, [sp, #8]
     51a:	4b10      	ldr	r3, [pc, #64]	; (55c <main+0x70>)
     51c:	9303      	str	r3, [sp, #12]
     51e:	4b10      	ldr	r3, [pc, #64]	; (560 <main+0x74>)
     520:	f000 fc1a 	bl	d58 <wlan_init>
     524:	480f      	ldr	r0, [pc, #60]	; (564 <main+0x78>)
     526:	f002 f945 	bl	27b4 <puts>
     52a:	2000      	movs	r0, #0
     52c:	f000 fc28 	bl	d80 <wlan_start>
     530:	480d      	ldr	r0, [pc, #52]	; (568 <main+0x7c>)
     532:	f002 f8c3 	bl	26bc <iprintf>
     536:	e7fe      	b.n	536 <main+0x4a>
     538:	00008748 	andeq	r8, r0, r8, asr #14
     53c:	00008758 	andeq	r8, r0, r8, asr r7
     540:	00008769 	andeq	r8, r0, r9, ror #14
     544:	0000133d 	andeq	r1, r0, sp, lsr r3
     548:	000013b5 			; <UNDEFINED> instruction: 0x000013b5
     54c:	0000135d 	andeq	r1, r0, sp, asr r3
     550:	000013a5 	andeq	r1, r0, r5, lsr #7
     554:	00001381 	andeq	r1, r0, r1, lsl #7
     558:	000004e9 	andeq	r0, r0, r9, ror #9
     55c:	00001305 	andeq	r1, r0, r5, lsl #6
     560:	000013ad 	andeq	r1, r0, sp, lsr #7
     564:	0000876f 	andeq	r8, r0, pc, ror #14
     568:	00008776 	andeq	r8, r0, r6, ror r7

0000056c <UINT32_TO_STREAM_f>:
     56c:	0a0b      	lsrs	r3, r1, #8
     56e:	7001      	strb	r1, [r0, #0]
     570:	7043      	strb	r3, [r0, #1]
     572:	0c0b      	lsrs	r3, r1, #16
     574:	0e09      	lsrs	r1, r1, #24
     576:	7083      	strb	r3, [r0, #2]
     578:	70c1      	strb	r1, [r0, #3]
     57a:	3004      	adds	r0, #4
     57c:	4770      	bx	lr

0000057e <UINT16_TO_STREAM_f>:
     57e:	7001      	strb	r1, [r0, #0]
     580:	0a09      	lsrs	r1, r1, #8
     582:	7041      	strb	r1, [r0, #1]
     584:	3002      	adds	r0, #2
     586:	4770      	bx	lr

00000588 <STREAM_TO_UINT16_f>:
     588:	1843      	adds	r3, r0, r1
     58a:	785b      	ldrb	r3, [r3, #1]
     58c:	5c40      	ldrb	r0, [r0, r1]
     58e:	021b      	lsls	r3, r3, #8
     590:	18c0      	adds	r0, r0, r3
     592:	b280      	uxth	r0, r0
     594:	4770      	bx	lr

00000596 <STREAM_TO_UINT32_f>:
     596:	b510      	push	{r4, lr}
     598:	1843      	adds	r3, r0, r1
     59a:	78dc      	ldrb	r4, [r3, #3]
     59c:	789a      	ldrb	r2, [r3, #2]
     59e:	0624      	lsls	r4, r4, #24
     5a0:	0412      	lsls	r2, r2, #16
     5a2:	18a4      	adds	r4, r4, r2
     5a4:	785b      	ldrb	r3, [r3, #1]
     5a6:	5c42      	ldrb	r2, [r0, r1]
     5a8:	021b      	lsls	r3, r3, #8
     5aa:	18a0      	adds	r0, r4, r2
     5ac:	18c0      	adds	r0, r0, r3
     5ae:	bd10      	pop	{r4, pc}

000005b0 <hci_unsol_handle_patch_request>:
     5b0:	b573      	push	{r0, r1, r4, r5, r6, lr}
     5b2:	7944      	ldrb	r4, [r0, #5]
     5b4:	2300      	movs	r3, #0
     5b6:	9301      	str	r3, [sp, #4]
     5b8:	2c02      	cmp	r4, #2
     5ba:	d010      	beq.n	5de <hci_unsol_handle_patch_request+0x2e>
     5bc:	2c03      	cmp	r4, #3
     5be:	d01b      	beq.n	5f8 <hci_unsol_handle_patch_request+0x48>
     5c0:	2c01      	cmp	r4, #1
     5c2:	d12e      	bne.n	622 <hci_unsol_handle_patch_request+0x72>
     5c4:	4d17      	ldr	r5, [pc, #92]	; (624 <hci_unsol_handle_patch_request+0x74>)
     5c6:	692b      	ldr	r3, [r5, #16]
     5c8:	1c2e      	adds	r6, r5, #0
     5ca:	2b00      	cmp	r3, #0
     5cc:	d004      	beq.n	5d8 <hci_unsol_handle_patch_request+0x28>
     5ce:	692b      	ldr	r3, [r5, #16]
     5d0:	a801      	add	r0, sp, #4
     5d2:	4798      	blx	r3
     5d4:	1e02      	subs	r2, r0, #0
     5d6:	d119      	bne.n	60c <hci_unsol_handle_patch_request+0x5c>
     5d8:	68b1      	ldr	r1, [r6, #8]
     5da:	2001      	movs	r0, #1
     5dc:	e01d      	b.n	61a <hci_unsol_handle_patch_request+0x6a>
     5de:	4d11      	ldr	r5, [pc, #68]	; (624 <hci_unsol_handle_patch_request+0x74>)
     5e0:	68eb      	ldr	r3, [r5, #12]
     5e2:	1c2e      	adds	r6, r5, #0
     5e4:	2b00      	cmp	r3, #0
     5e6:	d004      	beq.n	5f2 <hci_unsol_handle_patch_request+0x42>
     5e8:	68eb      	ldr	r3, [r5, #12]
     5ea:	a801      	add	r0, sp, #4
     5ec:	4798      	blx	r3
     5ee:	1e02      	subs	r2, r0, #0
     5f0:	d10c      	bne.n	60c <hci_unsol_handle_patch_request+0x5c>
     5f2:	68b1      	ldr	r1, [r6, #8]
     5f4:	2002      	movs	r0, #2
     5f6:	e010      	b.n	61a <hci_unsol_handle_patch_request+0x6a>
     5f8:	4d0a      	ldr	r5, [pc, #40]	; (624 <hci_unsol_handle_patch_request+0x74>)
     5fa:	696b      	ldr	r3, [r5, #20]
     5fc:	1c2e      	adds	r6, r5, #0
     5fe:	2b00      	cmp	r3, #0
     600:	d009      	beq.n	616 <hci_unsol_handle_patch_request+0x66>
     602:	696b      	ldr	r3, [r5, #20]
     604:	a801      	add	r0, sp, #4
     606:	4798      	blx	r3
     608:	1e02      	subs	r2, r0, #0
     60a:	d004      	beq.n	616 <hci_unsol_handle_patch_request+0x66>
     60c:	9801      	ldr	r0, [sp, #4]
     60e:	68a9      	ldr	r1, [r5, #8]
     610:	b283      	uxth	r3, r0
     612:	1c20      	adds	r0, r4, #0
     614:	e003      	b.n	61e <hci_unsol_handle_patch_request+0x6e>
     616:	68b1      	ldr	r1, [r6, #8]
     618:	2003      	movs	r0, #3
     61a:	2200      	movs	r2, #0
     61c:	1c13      	adds	r3, r2, #0
     61e:	f000 fb25 	bl	c6c <hci_patch_send>
     622:	bd73      	pop	{r0, r1, r4, r5, r6, pc}
     624:	1ffff19c 	svcne	0x00fff19c

00000628 <set_socket_active_status>:
     628:	b510      	push	{r4, lr}
     62a:	2807      	cmp	r0, #7
     62c:	d80a      	bhi.n	644 <set_socket_active_status+0x1c>
     62e:	2901      	cmp	r1, #1
     630:	d808      	bhi.n	644 <set_socket_active_status+0x1c>
     632:	4b05      	ldr	r3, [pc, #20]	; (648 <set_socket_active_status+0x20>)
     634:	2201      	movs	r2, #1
     636:	681c      	ldr	r4, [r3, #0]
     638:	4082      	lsls	r2, r0
     63a:	4081      	lsls	r1, r0
     63c:	4394      	bics	r4, r2
     63e:	1c08      	adds	r0, r1, #0
     640:	4320      	orrs	r0, r4
     642:	6018      	str	r0, [r3, #0]
     644:	bd10      	pop	{r4, pc}
     646:	46c0      	nop			; (mov r8, r8)
     648:	1ffff0c0 	svcne	0x00fff0c0

0000064c <hci_unsol_event_handler>:
     64c:	b570      	push	{r4, r5, r6, lr}
     64e:	2101      	movs	r1, #1
     650:	b086      	sub	sp, #24
     652:	1c05      	adds	r5, r0, #0
     654:	f7ff ff98 	bl	588 <STREAM_TO_UINT16_f>
     658:	1c04      	adds	r4, r0, #0
     65a:	0441      	lsls	r1, r0, #17
     65c:	d52b      	bpl.n	6b6 <hci_unsol_event_handler+0x6a>
     65e:	2382      	movs	r3, #130	; 0x82
     660:	01db      	lsls	r3, r3, #7
     662:	4298      	cmp	r0, r3
     664:	d127      	bne.n	6b6 <hci_unsol_event_handler+0x6a>
     666:	1c28      	adds	r0, r5, #0
     668:	2105      	movs	r1, #5
     66a:	f7ff ff8d 	bl	588 <STREAM_TO_UINT16_f>
     66e:	0080      	lsls	r0, r0, #2
     670:	3007      	adds	r0, #7
     672:	1dee      	adds	r6, r5, #7
     674:	2400      	movs	r4, #0
     676:	182d      	adds	r5, r5, r0
     678:	42ae      	cmp	r6, r5
     67a:	d006      	beq.n	68a <hci_unsol_event_handler+0x3e>
     67c:	1c30      	adds	r0, r6, #0
     67e:	2102      	movs	r1, #2
     680:	f7ff ff82 	bl	588 <STREAM_TO_UINT16_f>
     684:	3604      	adds	r6, #4
     686:	1824      	adds	r4, r4, r0
     688:	e7f6      	b.n	678 <hci_unsol_event_handler+0x2c>
     68a:	4b6f      	ldr	r3, [pc, #444]	; (848 <hci_unsol_event_handler+0x1fc>)
     68c:	6b1a      	ldr	r2, [r3, #48]	; 0x30
     68e:	b292      	uxth	r2, r2
     690:	1912      	adds	r2, r2, r4
     692:	b292      	uxth	r2, r2
     694:	861a      	strh	r2, [r3, #48]	; 0x30
     696:	6bda      	ldr	r2, [r3, #60]	; 0x3c
     698:	18a4      	adds	r4, r4, r2
     69a:	63dc      	str	r4, [r3, #60]	; 0x3c
     69c:	6bd9      	ldr	r1, [r3, #60]	; 0x3c
     69e:	6b9a      	ldr	r2, [r3, #56]	; 0x38
     6a0:	4291      	cmp	r1, r2
     6a2:	d000      	beq.n	6a6 <hci_unsol_event_handler+0x5a>
     6a4:	e0c0      	b.n	828 <hci_unsol_event_handler+0x1dc>
     6a6:	6c1a      	ldr	r2, [r3, #64]	; 0x40
     6a8:	b2d2      	uxtb	r2, r2
     6aa:	2a00      	cmp	r2, #0
     6ac:	d100      	bne.n	6b0 <hci_unsol_event_handler+0x64>
     6ae:	e0bb      	b.n	828 <hci_unsol_event_handler+0x1dc>
     6b0:	699b      	ldr	r3, [r3, #24]
     6b2:	2099      	movs	r0, #153	; 0x99
     6b4:	e02c      	b.n	710 <hci_unsol_event_handler+0xc4>
     6b6:	0be1      	lsrs	r1, r4, #15
     6b8:	03c9      	lsls	r1, r1, #15
     6ba:	b289      	uxth	r1, r1
     6bc:	2900      	cmp	r1, #0
     6be:	d100      	bne.n	6c2 <hci_unsol_event_handler+0x76>
     6c0:	e091      	b.n	7e6 <hci_unsol_event_handler+0x19a>
     6c2:	4b62      	ldr	r3, [pc, #392]	; (84c <hci_unsol_event_handler+0x200>)
     6c4:	429c      	cmp	r4, r3
     6c6:	d026      	beq.n	716 <hci_unsol_event_handler+0xca>
     6c8:	d80a      	bhi.n	6e0 <hci_unsol_event_handler+0x94>
     6ca:	4b61      	ldr	r3, [pc, #388]	; (850 <hci_unsol_event_handler+0x204>)
     6cc:	429c      	cmp	r4, r3
     6ce:	d200      	bcs.n	6d2 <hci_unsol_event_handler+0x86>
     6d0:	e0b6      	b.n	840 <hci_unsol_event_handler+0x1f4>
     6d2:	4b60      	ldr	r3, [pc, #384]	; (854 <hci_unsol_event_handler+0x208>)
     6d4:	429c      	cmp	r4, r3
     6d6:	d914      	bls.n	702 <hci_unsol_event_handler+0xb6>
     6d8:	4b5f      	ldr	r3, [pc, #380]	; (858 <hci_unsol_event_handler+0x20c>)
     6da:	429c      	cmp	r4, r3
     6dc:	d011      	beq.n	702 <hci_unsol_event_handler+0xb6>
     6de:	e0af      	b.n	840 <hci_unsol_event_handler+0x1f4>
     6e0:	4b5e      	ldr	r3, [pc, #376]	; (85c <hci_unsol_event_handler+0x210>)
     6e2:	429c      	cmp	r4, r3
     6e4:	d00d      	beq.n	702 <hci_unsol_event_handler+0xb6>
     6e6:	d803      	bhi.n	6f0 <hci_unsol_event_handler+0xa4>
     6e8:	4b5d      	ldr	r3, [pc, #372]	; (860 <hci_unsol_event_handler+0x214>)
     6ea:	429c      	cmp	r4, r3
     6ec:	d04e      	beq.n	78c <hci_unsol_event_handler+0x140>
     6ee:	e0a7      	b.n	840 <hci_unsol_event_handler+0x1f4>
     6f0:	2382      	movs	r3, #130	; 0x82
     6f2:	021b      	lsls	r3, r3, #8
     6f4:	429c      	cmp	r4, r3
     6f6:	d004      	beq.n	702 <hci_unsol_event_handler+0xb6>
     6f8:	2388      	movs	r3, #136	; 0x88
     6fa:	021b      	lsls	r3, r3, #8
     6fc:	429c      	cmp	r4, r3
     6fe:	d068      	beq.n	7d2 <hci_unsol_event_handler+0x186>
     700:	e09e      	b.n	840 <hci_unsol_event_handler+0x1f4>
     702:	4b51      	ldr	r3, [pc, #324]	; (848 <hci_unsol_event_handler+0x1fc>)
     704:	699a      	ldr	r2, [r3, #24]
     706:	2a00      	cmp	r2, #0
     708:	d100      	bne.n	70c <hci_unsol_event_handler+0xc0>
     70a:	e08d      	b.n	828 <hci_unsol_event_handler+0x1dc>
     70c:	699b      	ldr	r3, [r3, #24]
     70e:	1c20      	adds	r0, r4, #0
     710:	2100      	movs	r1, #0
     712:	1c0a      	adds	r2, r1, #0
     714:	e065      	b.n	7e2 <hci_unsol_event_handler+0x196>
     716:	2300      	movs	r3, #0
     718:	18ea      	adds	r2, r5, r3
     71a:	7952      	ldrb	r2, [r2, #5]
     71c:	4669      	mov	r1, sp
     71e:	545a      	strb	r2, [r3, r1]
     720:	3301      	adds	r3, #1
     722:	2b04      	cmp	r3, #4
     724:	d1f8      	bne.n	718 <hci_unsol_event_handler+0xcc>
     726:	7a6a      	ldrb	r2, [r5, #9]
     728:	ab01      	add	r3, sp, #4
     72a:	701a      	strb	r2, [r3, #0]
     72c:	7aaa      	ldrb	r2, [r5, #10]
     72e:	1c28      	adds	r0, r5, #0
     730:	714a      	strb	r2, [r1, #5]
     732:	7aea      	ldrb	r2, [r5, #11]
     734:	300d      	adds	r0, #13
     736:	718a      	strb	r2, [r1, #6]
     738:	7b2a      	ldrb	r2, [r5, #12]
     73a:	2300      	movs	r3, #0
     73c:	71ca      	strb	r2, [r1, #7]
     73e:	a900      	add	r1, sp, #0
     740:	18ca      	adds	r2, r1, r3
     742:	5cc1      	ldrb	r1, [r0, r3]
     744:	3301      	adds	r3, #1
     746:	7211      	strb	r1, [r2, #8]
     748:	2b04      	cmp	r3, #4
     74a:	d1f8      	bne.n	73e <hci_unsol_event_handler+0xf2>
     74c:	1c28      	adds	r0, r5, #0
     74e:	3011      	adds	r0, #17
     750:	2300      	movs	r3, #0
     752:	a900      	add	r1, sp, #0
     754:	18ca      	adds	r2, r1, r3
     756:	5cc1      	ldrb	r1, [r0, r3]
     758:	3301      	adds	r3, #1
     75a:	7311      	strb	r1, [r2, #12]
     75c:	2b04      	cmp	r3, #4
     75e:	d1f8      	bne.n	752 <hci_unsol_event_handler+0x106>
     760:	1c28      	adds	r0, r5, #0
     762:	3015      	adds	r0, #21
     764:	2300      	movs	r3, #0
     766:	a900      	add	r1, sp, #0
     768:	18ca      	adds	r2, r1, r3
     76a:	5cc1      	ldrb	r1, [r0, r3]
     76c:	3301      	adds	r3, #1
     76e:	7411      	strb	r1, [r2, #16]
     770:	2b04      	cmp	r3, #4
     772:	d1f8      	bne.n	766 <hci_unsol_event_handler+0x11a>
     774:	792a      	ldrb	r2, [r5, #4]
     776:	ab05      	add	r3, sp, #20
     778:	701a      	strb	r2, [r3, #0]
     77a:	4b33      	ldr	r3, [pc, #204]	; (848 <hci_unsol_event_handler+0x1fc>)
     77c:	699a      	ldr	r2, [r3, #24]
     77e:	2a00      	cmp	r2, #0
     780:	d052      	beq.n	828 <hci_unsol_event_handler+0x1dc>
     782:	699b      	ldr	r3, [r3, #24]
     784:	1c20      	adds	r0, r4, #0
     786:	4669      	mov	r1, sp
     788:	2215      	movs	r2, #21
     78a:	e02a      	b.n	7e2 <hci_unsol_event_handler+0x196>
     78c:	3505      	adds	r5, #5
     78e:	2100      	movs	r1, #0
     790:	1c28      	adds	r0, r5, #0
     792:	f7ff ff00 	bl	596 <STREAM_TO_UINT32_f>
     796:	2104      	movs	r1, #4
     798:	9000      	str	r0, [sp, #0]
     79a:	1c28      	adds	r0, r5, #0
     79c:	f7ff fefb 	bl	596 <STREAM_TO_UINT32_f>
     7a0:	2108      	movs	r1, #8
     7a2:	9001      	str	r0, [sp, #4]
     7a4:	1c28      	adds	r0, r5, #0
     7a6:	f7ff fef6 	bl	596 <STREAM_TO_UINT32_f>
     7aa:	210c      	movs	r1, #12
     7ac:	9002      	str	r0, [sp, #8]
     7ae:	1c28      	adds	r0, r5, #0
     7b0:	f7ff fef1 	bl	596 <STREAM_TO_UINT32_f>
     7b4:	2110      	movs	r1, #16
     7b6:	9003      	str	r0, [sp, #12]
     7b8:	1c28      	adds	r0, r5, #0
     7ba:	f7ff feec 	bl	596 <STREAM_TO_UINT32_f>
     7be:	4b22      	ldr	r3, [pc, #136]	; (848 <hci_unsol_event_handler+0x1fc>)
     7c0:	9004      	str	r0, [sp, #16]
     7c2:	699a      	ldr	r2, [r3, #24]
     7c4:	2a00      	cmp	r2, #0
     7c6:	d02f      	beq.n	828 <hci_unsol_event_handler+0x1dc>
     7c8:	699b      	ldr	r3, [r3, #24]
     7ca:	1c20      	adds	r0, r4, #0
     7cc:	4669      	mov	r1, sp
     7ce:	2214      	movs	r2, #20
     7d0:	e007      	b.n	7e2 <hci_unsol_event_handler+0x196>
     7d2:	4b1d      	ldr	r3, [pc, #116]	; (848 <hci_unsol_event_handler+0x1fc>)
     7d4:	699a      	ldr	r2, [r3, #24]
     7d6:	2a00      	cmp	r2, #0
     7d8:	d026      	beq.n	828 <hci_unsol_event_handler+0x1dc>
     7da:	699b      	ldr	r3, [r3, #24]
     7dc:	1d69      	adds	r1, r5, #5
     7de:	1c20      	adds	r0, r4, #0
     7e0:	2201      	movs	r2, #1
     7e2:	4798      	blx	r3
     7e4:	e020      	b.n	828 <hci_unsol_event_handler+0x1dc>
     7e6:	4b1f      	ldr	r3, [pc, #124]	; (864 <hci_unsol_event_handler+0x218>)
     7e8:	429c      	cmp	r4, r3
     7ea:	d004      	beq.n	7f6 <hci_unsol_event_handler+0x1aa>
     7ec:	4a1e      	ldr	r2, [pc, #120]	; (868 <hci_unsol_event_handler+0x21c>)
     7ee:	18a3      	adds	r3, r4, r2
     7f0:	b29b      	uxth	r3, r3
     7f2:	2b01      	cmp	r3, #1
     7f4:	d81a      	bhi.n	82c <hci_unsol_event_handler+0x1e0>
     7f6:	1d6c      	adds	r4, r5, #5
     7f8:	2104      	movs	r1, #4
     7fa:	1c20      	adds	r0, r4, #0
     7fc:	f7ff fecb 	bl	596 <STREAM_TO_UINT32_f>
     800:	2100      	movs	r1, #0
     802:	3039      	adds	r0, #57	; 0x39
     804:	d11d      	bne.n	842 <hci_unsol_event_handler+0x1f6>
     806:	792a      	ldrb	r2, [r5, #4]
     808:	4b0f      	ldr	r3, [pc, #60]	; (848 <hci_unsol_event_handler+0x1fc>)
     80a:	1c20      	adds	r0, r4, #0
     80c:	62da      	str	r2, [r3, #44]	; 0x2c
     80e:	f7ff fec2 	bl	596 <STREAM_TO_UINT32_f>
     812:	2104      	movs	r1, #4
     814:	1c05      	adds	r5, r0, #0
     816:	1c20      	adds	r0, r4, #0
     818:	f7ff febd 	bl	596 <STREAM_TO_UINT32_f>
     81c:	3039      	adds	r0, #57	; 0x39
     81e:	d103      	bne.n	828 <hci_unsol_event_handler+0x1dc>
     820:	1c28      	adds	r0, r5, #0
     822:	2101      	movs	r1, #1
     824:	f7ff ff00 	bl	628 <set_socket_active_status>
     828:	2101      	movs	r1, #1
     82a:	e00a      	b.n	842 <hci_unsol_event_handler+0x1f6>
     82c:	4b06      	ldr	r3, [pc, #24]	; (848 <hci_unsol_event_handler+0x1fc>)
     82e:	681b      	ldr	r3, [r3, #0]
     830:	b29b      	uxth	r3, r3
     832:	429c      	cmp	r4, r3
     834:	d005      	beq.n	842 <hci_unsol_event_handler+0x1f6>
     836:	2380      	movs	r3, #128	; 0x80
     838:	015b      	lsls	r3, r3, #5
     83a:	429c      	cmp	r4, r3
     83c:	d1f4      	bne.n	828 <hci_unsol_event_handler+0x1dc>
     83e:	e000      	b.n	842 <hci_unsol_event_handler+0x1f6>
     840:	2100      	movs	r1, #0
     842:	1c08      	adds	r0, r1, #0
     844:	b006      	add	sp, #24
     846:	bd70      	pop	{r4, r5, r6, pc}
     848:	1ffff19c 	svcne	0x00fff19c
     84c:	00008010 	andeq	r8, r0, r0, lsl r0
     850:	00008001 	andeq	r8, r0, r1
     854:	00008002 	andeq	r8, r0, r2
     858:	00008004 	andeq	r8, r0, r4
     85c:	00008080 	andeq	r8, r0, r0, lsl #1
     860:	00008040 	andeq	r8, r0, r0, asr #32
     864:	00001003 	andeq	r1, r0, r3
     868:	ffffeff2 			; <UNDEFINED> instruction: 0xffffeff2

0000086c <hci_unsolicited_event_handler>:
     86c:	b538      	push	{r3, r4, r5, lr}
     86e:	4c0a      	ldr	r4, [pc, #40]	; (898 <hci_unsolicited_event_handler+0x2c>)
     870:	6823      	ldr	r3, [r4, #0]
     872:	0c1b      	lsrs	r3, r3, #16
     874:	d101      	bne.n	87a <hci_unsolicited_event_handler+0xe>
     876:	2000      	movs	r0, #0
     878:	e00d      	b.n	896 <hci_unsolicited_event_handler+0x2a>
     87a:	6860      	ldr	r0, [r4, #4]
     87c:	7803      	ldrb	r3, [r0, #0]
     87e:	2b04      	cmp	r3, #4
     880:	d1f9      	bne.n	876 <hci_unsolicited_event_handler+0xa>
     882:	f7ff fee3 	bl	64c <hci_unsol_event_handler>
     886:	1e05      	subs	r5, r0, #0
     888:	2d01      	cmp	r5, #1
     88a:	d1f4      	bne.n	876 <hci_unsolicited_event_handler+0xa>
     88c:	2300      	movs	r3, #0
     88e:	8063      	strh	r3, [r4, #2]
     890:	f000 fcf0 	bl	1274 <SpiResumeSpi>
     894:	1c28      	adds	r0, r5, #0
     896:	bd38      	pop	{r3, r4, r5, pc}
     898:	1ffff19c 	svcne	0x00fff19c

0000089c <hci_event_handler>:
     89c:	b5f0      	push	{r4, r5, r6, r7, lr}
     89e:	b085      	sub	sp, #20
     8a0:	1c04      	adds	r4, r0, #0
     8a2:	9102      	str	r1, [sp, #8]
     8a4:	9203      	str	r2, [sp, #12]
     8a6:	2500      	movs	r5, #0
     8a8:	49af      	ldr	r1, [pc, #700]	; (b68 <hci_event_handler+0x2cc>)
     8aa:	680b      	ldr	r3, [r1, #0]
     8ac:	0c1b      	lsrs	r3, r3, #16
     8ae:	d0fb      	beq.n	8a8 <hci_event_handler+0xc>
     8b0:	684f      	ldr	r7, [r1, #4]
     8b2:	783b      	ldrb	r3, [r7, #0]
     8b4:	2b04      	cmp	r3, #4
     8b6:	d000      	beq.n	8ba <hci_event_handler+0x1e>
     8b8:	e17e      	b.n	bb8 <hci_event_handler+0x31c>
     8ba:	1c38      	adds	r0, r7, #0
     8bc:	2101      	movs	r1, #1
     8be:	f7ff fe63 	bl	588 <STREAM_TO_UINT16_f>
     8c2:	1c05      	adds	r5, r0, #0
     8c4:	9001      	str	r0, [sp, #4]
     8c6:	1c38      	adds	r0, r7, #0
     8c8:	f7ff fec0 	bl	64c <hci_unsol_event_handler>
     8cc:	2800      	cmp	r0, #0
     8ce:	d000      	beq.n	8d2 <hci_event_handler+0x36>
     8d0:	e141      	b.n	b56 <hci_event_handler+0x2ba>
     8d2:	4ba6      	ldr	r3, [pc, #664]	; (b6c <hci_event_handler+0x2d0>)
     8d4:	1d7e      	adds	r6, r7, #5
     8d6:	429d      	cmp	r5, r3
     8d8:	d84e      	bhi.n	978 <hci_event_handler+0xdc>
     8da:	4ba5      	ldr	r3, [pc, #660]	; (b70 <hci_event_handler+0x2d4>)
     8dc:	429d      	cmp	r5, r3
     8de:	d300      	bcc.n	8e2 <hci_event_handler+0x46>
     8e0:	e09d      	b.n	a1e <hci_event_handler+0x182>
     8e2:	4ba4      	ldr	r3, [pc, #656]	; (b74 <hci_event_handler+0x2d8>)
     8e4:	429d      	cmp	r5, r3
     8e6:	d100      	bne.n	8ea <hci_event_handler+0x4e>
     8e8:	e099      	b.n	a1e <hci_event_handler+0x182>
     8ea:	d814      	bhi.n	916 <hci_event_handler+0x7a>
     8ec:	2d0c      	cmp	r5, #12
     8ee:	d80a      	bhi.n	906 <hci_event_handler+0x6a>
     8f0:	2d08      	cmp	r5, #8
     8f2:	d300      	bcc.n	8f6 <hci_event_handler+0x5a>
     8f4:	e093      	b.n	a1e <hci_event_handler+0x182>
     8f6:	2d00      	cmp	r5, #0
     8f8:	d100      	bne.n	8fc <hci_event_handler+0x60>
     8fa:	e12c      	b.n	b56 <hci_event_handler+0x2ba>
     8fc:	9d01      	ldr	r5, [sp, #4]
     8fe:	2d06      	cmp	r5, #6
     900:	d900      	bls.n	904 <hci_event_handler+0x68>
     902:	e0cd      	b.n	aa0 <hci_event_handler+0x204>
     904:	e08b      	b.n	a1e <hci_event_handler+0x182>
     906:	2d0d      	cmp	r5, #13
     908:	d100      	bne.n	90c <hci_event_handler+0x70>
     90a:	e085      	b.n	a18 <hci_event_handler+0x17c>
     90c:	4b9a      	ldr	r3, [pc, #616]	; (b78 <hci_event_handler+0x2dc>)
     90e:	429d      	cmp	r5, r3
     910:	d100      	bne.n	914 <hci_event_handler+0x78>
     912:	e081      	b.n	a18 <hci_event_handler+0x17c>
     914:	e11f      	b.n	b56 <hci_event_handler+0x2ba>
     916:	4b99      	ldr	r3, [pc, #612]	; (b7c <hci_event_handler+0x2e0>)
     918:	429d      	cmp	r5, r3
     91a:	d818      	bhi.n	94e <hci_event_handler+0xb2>
     91c:	4b98      	ldr	r3, [pc, #608]	; (b80 <hci_event_handler+0x2e4>)
     91e:	429d      	cmp	r5, r3
     920:	d300      	bcc.n	924 <hci_event_handler+0x88>
     922:	e07c      	b.n	a1e <hci_event_handler+0x182>
     924:	2381      	movs	r3, #129	; 0x81
     926:	009b      	lsls	r3, r3, #2
     928:	429d      	cmp	r5, r3
     92a:	d975      	bls.n	a18 <hci_event_handler+0x17c>
     92c:	4b95      	ldr	r3, [pc, #596]	; (b84 <hci_event_handler+0x2e8>)
     92e:	9a01      	ldr	r2, [sp, #4]
     930:	429a      	cmp	r2, r3
     932:	d000      	beq.n	936 <hci_event_handler+0x9a>
     934:	e10f      	b.n	b56 <hci_event_handler+0x2ba>
     936:	793b      	ldrb	r3, [r7, #4]
     938:	1c30      	adds	r0, r6, #0
     93a:	7023      	strb	r3, [r4, #0]
     93c:	2100      	movs	r1, #0
     93e:	f7ff fe2a 	bl	596 <STREAM_TO_UINT32_f>
     942:	3401      	adds	r4, #1
     944:	1c01      	adds	r1, r0, #0
     946:	1c20      	adds	r0, r4, #0
     948:	f7ff fe10 	bl	56c <UINT32_TO_STREAM_f>
     94c:	e103      	b.n	b56 <hci_event_handler+0x2ba>
     94e:	4b8e      	ldr	r3, [pc, #568]	; (b88 <hci_event_handler+0x2ec>)
     950:	429d      	cmp	r5, r3
     952:	d077      	beq.n	a44 <hci_event_handler+0x1a8>
     954:	d800      	bhi.n	958 <hci_event_handler+0xbc>
     956:	e08f      	b.n	a78 <hci_event_handler+0x1dc>
     958:	2100      	movs	r1, #0
     95a:	1c30      	adds	r0, r6, #0
     95c:	f7ff fe1b 	bl	596 <STREAM_TO_UINT32_f>
     960:	2104      	movs	r1, #4
     962:	6020      	str	r0, [r4, #0]
     964:	1c30      	adds	r0, r6, #0
     966:	f7ff fe16 	bl	596 <STREAM_TO_UINT32_f>
     96a:	1c39      	adds	r1, r7, #0
     96c:	6060      	str	r0, [r4, #4]
     96e:	3408      	adds	r4, #8
     970:	1c20      	adds	r0, r4, #0
     972:	310d      	adds	r1, #13
     974:	2210      	movs	r2, #16
     976:	e0ae      	b.n	ad6 <hci_event_handler+0x23a>
     978:	4b84      	ldr	r3, [pc, #528]	; (b8c <hci_event_handler+0x2f0>)
     97a:	429d      	cmp	r5, r3
     97c:	d04c      	beq.n	a18 <hci_event_handler+0x17c>
     97e:	d829      	bhi.n	9d4 <hci_event_handler+0x138>
     980:	4b83      	ldr	r3, [pc, #524]	; (b90 <hci_event_handler+0x2f4>)
     982:	429d      	cmp	r5, r3
     984:	d04b      	beq.n	a1e <hci_event_handler+0x182>
     986:	d81c      	bhi.n	9c2 <hci_event_handler+0x126>
     988:	4b82      	ldr	r3, [pc, #520]	; (b94 <hci_event_handler+0x2f8>)
     98a:	429d      	cmp	r5, r3
     98c:	d047      	beq.n	a1e <hci_event_handler+0x182>
     98e:	d900      	bls.n	992 <hci_event_handler+0xf6>
     990:	e080      	b.n	a94 <hci_event_handler+0x1f8>
     992:	2100      	movs	r1, #0
     994:	1c30      	adds	r0, r6, #0
     996:	f7ff fdfe 	bl	596 <STREAM_TO_UINT32_f>
     99a:	2104      	movs	r1, #4
     99c:	6020      	str	r0, [r4, #0]
     99e:	1c30      	adds	r0, r6, #0
     9a0:	f7ff fdf9 	bl	596 <STREAM_TO_UINT32_f>
     9a4:	2108      	movs	r1, #8
     9a6:	6060      	str	r0, [r4, #4]
     9a8:	1c30      	adds	r0, r6, #0
     9aa:	f7ff fdf4 	bl	596 <STREAM_TO_UINT32_f>
     9ae:	1c22      	adds	r2, r4, #0
     9b0:	60a0      	str	r0, [r4, #8]
     9b2:	320c      	adds	r2, #12
     9b4:	1c30      	adds	r0, r6, #0
     9b6:	210c      	movs	r1, #12
     9b8:	9200      	str	r2, [sp, #0]
     9ba:	f7ff fdec 	bl	596 <STREAM_TO_UINT32_f>
     9be:	60e0      	str	r0, [r4, #12]
     9c0:	e066      	b.n	a90 <hci_event_handler+0x1f4>
     9c2:	4b75      	ldr	r3, [pc, #468]	; (b98 <hci_event_handler+0x2fc>)
     9c4:	429d      	cmp	r5, r3
     9c6:	d057      	beq.n	a78 <hci_event_handler+0x1dc>
     9c8:	d82f      	bhi.n	a2a <hci_event_handler+0x18e>
     9ca:	4b74      	ldr	r3, [pc, #464]	; (b9c <hci_event_handler+0x300>)
     9cc:	9901      	ldr	r1, [sp, #4]
     9ce:	4299      	cmp	r1, r3
     9d0:	d038      	beq.n	a44 <hci_event_handler+0x1a8>
     9d2:	e0c0      	b.n	b56 <hci_event_handler+0x2ba>
     9d4:	4b72      	ldr	r3, [pc, #456]	; (ba0 <hci_event_handler+0x304>)
     9d6:	429d      	cmp	r5, r3
     9d8:	d01e      	beq.n	a18 <hci_event_handler+0x17c>
     9da:	d807      	bhi.n	9ec <hci_event_handler+0x150>
     9dc:	4b71      	ldr	r3, [pc, #452]	; (ba4 <hci_event_handler+0x308>)
     9de:	429d      	cmp	r5, r3
     9e0:	d200      	bcs.n	9e4 <hci_event_handler+0x148>
     9e2:	e0b8      	b.n	b56 <hci_event_handler+0x2ba>
     9e4:	4b70      	ldr	r3, [pc, #448]	; (ba8 <hci_event_handler+0x30c>)
     9e6:	429d      	cmp	r5, r3
     9e8:	d878      	bhi.n	adc <hci_event_handler+0x240>
     9ea:	e015      	b.n	a18 <hci_event_handler+0x17c>
     9ec:	4b6f      	ldr	r3, [pc, #444]	; (bac <hci_event_handler+0x310>)
     9ee:	429d      	cmp	r5, r3
     9f0:	d200      	bcs.n	9f4 <hci_event_handler+0x158>
     9f2:	e0b0      	b.n	b56 <hci_event_handler+0x2ba>
     9f4:	4b6e      	ldr	r3, [pc, #440]	; (bb0 <hci_event_handler+0x314>)
     9f6:	429d      	cmp	r5, r3
     9f8:	d90e      	bls.n	a18 <hci_event_handler+0x17c>
     9fa:	4b6e      	ldr	r3, [pc, #440]	; (bb4 <hci_event_handler+0x318>)
     9fc:	9a01      	ldr	r2, [sp, #4]
     9fe:	429a      	cmp	r2, r3
     a00:	d000      	beq.n	a04 <hci_event_handler+0x168>
     a02:	e0a8      	b.n	b56 <hci_event_handler+0x2ba>
     a04:	4958      	ldr	r1, [pc, #352]	; (b68 <hci_event_handler+0x2cc>)
     a06:	797b      	ldrb	r3, [r7, #5]
     a08:	1c30      	adds	r0, r6, #0
     a0a:	860b      	strh	r3, [r1, #48]	; 0x30
     a0c:	2101      	movs	r1, #1
     a0e:	f7ff fdbb 	bl	588 <STREAM_TO_UINT16_f>
     a12:	4a55      	ldr	r2, [pc, #340]	; (b68 <hci_event_handler+0x2cc>)
     a14:	8650      	strh	r0, [r2, #50]	; 0x32
     a16:	e09e      	b.n	b56 <hci_event_handler+0x2ba>
     a18:	793b      	ldrb	r3, [r7, #4]
     a1a:	7023      	strb	r3, [r4, #0]
     a1c:	e09b      	b.n	b56 <hci_event_handler+0x2ba>
     a1e:	1c30      	adds	r0, r6, #0
     a20:	2100      	movs	r1, #0
     a22:	f7ff fdb8 	bl	596 <STREAM_TO_UINT32_f>
     a26:	6020      	str	r0, [r4, #0]
     a28:	e095      	b.n	b56 <hci_event_handler+0x2ba>
     a2a:	2100      	movs	r1, #0
     a2c:	1c30      	adds	r0, r6, #0
     a2e:	f7ff fdb2 	bl	596 <STREAM_TO_UINT32_f>
     a32:	1c23      	adds	r3, r4, #0
     a34:	c301      	stmia	r3!, {r0}
     a36:	2104      	movs	r1, #4
     a38:	1c30      	adds	r0, r6, #0
     a3a:	9300      	str	r3, [sp, #0]
     a3c:	f7ff fdab 	bl	596 <STREAM_TO_UINT32_f>
     a40:	6060      	str	r0, [r4, #4]
     a42:	e025      	b.n	a90 <hci_event_handler+0x1f4>
     a44:	2100      	movs	r1, #0
     a46:	1c30      	adds	r0, r6, #0
     a48:	f7ff fda5 	bl	596 <STREAM_TO_UINT32_f>
     a4c:	2104      	movs	r1, #4
     a4e:	6020      	str	r0, [r4, #0]
     a50:	1c30      	adds	r0, r6, #0
     a52:	f7ff fda0 	bl	596 <STREAM_TO_UINT32_f>
     a56:	1c21      	adds	r1, r4, #0
     a58:	3108      	adds	r1, #8
     a5a:	6060      	str	r0, [r4, #4]
     a5c:	9100      	str	r1, [sp, #0]
     a5e:	1c30      	adds	r0, r6, #0
     a60:	2108      	movs	r1, #8
     a62:	f7ff fd98 	bl	596 <STREAM_TO_UINT32_f>
     a66:	68e3      	ldr	r3, [r4, #12]
     a68:	60a0      	str	r0, [r4, #8]
     a6a:	9c00      	ldr	r4, [sp, #0]
     a6c:	3339      	adds	r3, #57	; 0x39
     a6e:	d172      	bne.n	b56 <hci_event_handler+0x2ba>
     a70:	2101      	movs	r1, #1
     a72:	f7ff fdd9 	bl	628 <set_socket_active_status>
     a76:	e06e      	b.n	b56 <hci_event_handler+0x2ba>
     a78:	2100      	movs	r1, #0
     a7a:	1c30      	adds	r0, r6, #0
     a7c:	f7ff fd8b 	bl	596 <STREAM_TO_UINT32_f>
     a80:	2104      	movs	r1, #4
     a82:	6020      	str	r0, [r4, #0]
     a84:	1c30      	adds	r0, r6, #0
     a86:	f7ff fd86 	bl	596 <STREAM_TO_UINT32_f>
     a8a:	6060      	str	r0, [r4, #4]
     a8c:	3408      	adds	r4, #8
     a8e:	e062      	b.n	b56 <hci_event_handler+0x2ba>
     a90:	9c00      	ldr	r4, [sp, #0]
     a92:	e060      	b.n	b56 <hci_event_handler+0x2ba>
     a94:	793b      	ldrb	r3, [r7, #4]
     a96:	1c20      	adds	r0, r4, #0
     a98:	7123      	strb	r3, [r4, #4]
     a9a:	1c31      	adds	r1, r6, #0
     a9c:	2204      	movs	r2, #4
     a9e:	e01a      	b.n	ad6 <hci_event_handler+0x23a>
     aa0:	2100      	movs	r1, #0
     aa2:	1c30      	adds	r0, r6, #0
     aa4:	f7ff fd77 	bl	596 <STREAM_TO_UINT32_f>
     aa8:	2104      	movs	r1, #4
     aaa:	6020      	str	r0, [r4, #0]
     aac:	1c30      	adds	r0, r6, #0
     aae:	f7ff fd72 	bl	596 <STREAM_TO_UINT32_f>
     ab2:	2108      	movs	r1, #8
     ab4:	6060      	str	r0, [r4, #4]
     ab6:	1c30      	adds	r0, r6, #0
     ab8:	f7ff fd66 	bl	588 <STREAM_TO_UINT16_f>
     abc:	210a      	movs	r1, #10
     abe:	60a0      	str	r0, [r4, #8]
     ac0:	1c30      	adds	r0, r6, #0
     ac2:	f7ff fd61 	bl	588 <STREAM_TO_UINT16_f>
     ac6:	1c23      	adds	r3, r4, #0
     ac8:	330a      	adds	r3, #10
     aca:	340c      	adds	r4, #12
     acc:	1c39      	adds	r1, r7, #0
     ace:	6018      	str	r0, [r3, #0]
     ad0:	3111      	adds	r1, #17
     ad2:	1c20      	adds	r0, r4, #0
     ad4:	2226      	movs	r2, #38	; 0x26
     ad6:	f001 fd43 	bl	2560 <memcpy>
     ada:	e03c      	b.n	b56 <hci_event_handler+0x2ba>
     adc:	2300      	movs	r3, #0
     ade:	18fa      	adds	r2, r7, r3
     ae0:	7952      	ldrb	r2, [r2, #5]
     ae2:	54e2      	strb	r2, [r4, r3]
     ae4:	3301      	adds	r3, #1
     ae6:	2b04      	cmp	r3, #4
     ae8:	d1f9      	bne.n	ade <hci_event_handler+0x242>
     aea:	1c38      	adds	r0, r7, #0
     aec:	3009      	adds	r0, #9
     aee:	2300      	movs	r3, #0
     af0:	5cc1      	ldrb	r1, [r0, r3]
     af2:	18e2      	adds	r2, r4, r3
     af4:	3301      	adds	r3, #1
     af6:	7111      	strb	r1, [r2, #4]
     af8:	2b04      	cmp	r3, #4
     afa:	d1f9      	bne.n	af0 <hci_event_handler+0x254>
     afc:	1c38      	adds	r0, r7, #0
     afe:	300d      	adds	r0, #13
     b00:	2300      	movs	r3, #0
     b02:	5cc1      	ldrb	r1, [r0, r3]
     b04:	18e2      	adds	r2, r4, r3
     b06:	3301      	adds	r3, #1
     b08:	7211      	strb	r1, [r2, #8]
     b0a:	2b04      	cmp	r3, #4
     b0c:	d1f9      	bne.n	b02 <hci_event_handler+0x266>
     b0e:	1c38      	adds	r0, r7, #0
     b10:	3011      	adds	r0, #17
     b12:	2300      	movs	r3, #0
     b14:	5cc1      	ldrb	r1, [r0, r3]
     b16:	18e2      	adds	r2, r4, r3
     b18:	3301      	adds	r3, #1
     b1a:	7311      	strb	r1, [r2, #12]
     b1c:	2b04      	cmp	r3, #4
     b1e:	d1f9      	bne.n	b14 <hci_event_handler+0x278>
     b20:	1c38      	adds	r0, r7, #0
     b22:	3015      	adds	r0, #21
     b24:	2300      	movs	r3, #0
     b26:	5cc1      	ldrb	r1, [r0, r3]
     b28:	18e2      	adds	r2, r4, r3
     b2a:	3301      	adds	r3, #1
     b2c:	7411      	strb	r1, [r2, #16]
     b2e:	2b04      	cmp	r3, #4
     b30:	d1f9      	bne.n	b26 <hci_event_handler+0x28a>
     b32:	1c38      	adds	r0, r7, #0
     b34:	3019      	adds	r0, #25
     b36:	2300      	movs	r3, #0
     b38:	5cc1      	ldrb	r1, [r0, r3]
     b3a:	18e2      	adds	r2, r4, r3
     b3c:	3301      	adds	r3, #1
     b3e:	7511      	strb	r1, [r2, #20]
     b40:	2b06      	cmp	r3, #6
     b42:	d1f9      	bne.n	b38 <hci_event_handler+0x29c>
     b44:	1c38      	adds	r0, r7, #0
     b46:	301f      	adds	r0, #31
     b48:	2300      	movs	r3, #0
     b4a:	5cc1      	ldrb	r1, [r0, r3]
     b4c:	18e2      	adds	r2, r4, r3
     b4e:	3301      	adds	r3, #1
     b50:	7691      	strb	r1, [r2, #26]
     b52:	2b20      	cmp	r3, #32
     b54:	d1f9      	bne.n	b4a <hci_event_handler+0x2ae>
     b56:	4b04      	ldr	r3, [pc, #16]	; (b68 <hci_event_handler+0x2cc>)
     b58:	9901      	ldr	r1, [sp, #4]
     b5a:	681a      	ldr	r2, [r3, #0]
     b5c:	b292      	uxth	r2, r2
     b5e:	4291      	cmp	r1, r2
     b60:	d149      	bne.n	bf6 <hci_event_handler+0x35a>
     b62:	2200      	movs	r2, #0
     b64:	801a      	strh	r2, [r3, #0]
     b66:	e046      	b.n	bf6 <hci_event_handler+0x35a>
     b68:	1ffff19c 	svcne	0x00fff19c
     b6c:	00001007 	andeq	r1, r0, r7
     b70:	00001006 	andeq	r1, r0, r6
     b74:	00000202 	andeq	r0, r0, r2, lsl #4
     b78:	00000201 	andeq	r0, r0, r1, lsl #4
     b7c:	00001002 	andeq	r1, r0, r2
     b80:	00001001 	andeq	r1, r0, r1
     b84:	00000207 	andeq	r0, r0, r7, lsl #4
     b88:	00001004 	andeq	r1, r0, r4
     b8c:	00001011 	andeq	r1, r0, r1, lsl r0
     b90:	0000100b 	andeq	r1, r0, fp
     b94:	00001009 	andeq	r1, r0, r9
     b98:	0000100f 	andeq	r1, r0, pc
     b9c:	0000100d 	andeq	r1, r0, sp
     ba0:	00002006 	andeq	r2, r0, r6
     ba4:	00002001 	andeq	r2, r0, r1
     ba8:	00002004 	andeq	r2, r0, r4
     bac:	00002008 	andeq	r2, r0, r8
     bb0:	00002009 	andeq	r2, r0, r9
     bb4:	0000400b 	andeq	r4, r0, fp
     bb8:	1c38      	adds	r0, r7, #0
     bba:	2103      	movs	r1, #3
     bbc:	78be      	ldrb	r6, [r7, #2]
     bbe:	f7ff fce3 	bl	588 <STREAM_TO_UINT16_f>
     bc2:	9a02      	ldr	r2, [sp, #8]
     bc4:	9001      	str	r0, [sp, #4]
     bc6:	2a00      	cmp	r2, #0
     bc8:	d00b      	beq.n	be2 <hci_event_handler+0x346>
     bca:	2104      	movs	r1, #4
     bcc:	1d78      	adds	r0, r7, #5
     bce:	f7ff fce2 	bl	596 <STREAM_TO_UINT32_f>
     bd2:	9b03      	ldr	r3, [sp, #12]
     bd4:	1c39      	adds	r1, r7, #0
     bd6:	6018      	str	r0, [r3, #0]
     bd8:	b2c2      	uxtb	r2, r0
     bda:	3115      	adds	r1, #21
     bdc:	9802      	ldr	r0, [sp, #8]
     bde:	f001 fcbf 	bl	2560 <memcpy>
     be2:	9901      	ldr	r1, [sp, #4]
     be4:	1c20      	adds	r0, r4, #0
     be6:	1b8a      	subs	r2, r1, r6
     be8:	1d71      	adds	r1, r6, #5
     bea:	1879      	adds	r1, r7, r1
     bec:	f001 fcb8 	bl	2560 <memcpy>
     bf0:	4a0e      	ldr	r2, [pc, #56]	; (c2c <hci_event_handler+0x390>)
     bf2:	2300      	movs	r3, #0
     bf4:	86d3      	strh	r3, [r2, #54]	; 0x36
     bf6:	4e0d      	ldr	r6, [pc, #52]	; (c2c <hci_event_handler+0x390>)
     bf8:	2300      	movs	r3, #0
     bfa:	8073      	strh	r3, [r6, #2]
     bfc:	f000 fb3a 	bl	1274 <SpiResumeSpi>
     c00:	783b      	ldrb	r3, [r7, #0]
     c02:	2b04      	cmp	r3, #4
     c04:	d106      	bne.n	c14 <hci_event_handler+0x378>
     c06:	2380      	movs	r3, #128	; 0x80
     c08:	015b      	lsls	r3, r3, #5
     c0a:	429d      	cmp	r5, r3
     c0c:	d102      	bne.n	c14 <hci_event_handler+0x378>
     c0e:	1c38      	adds	r0, r7, #0
     c10:	f7ff fcce 	bl	5b0 <hci_unsol_handle_patch_request>
     c14:	6833      	ldr	r3, [r6, #0]
     c16:	b29b      	uxth	r3, r3
     c18:	2b00      	cmp	r3, #0
     c1a:	d000      	beq.n	c1e <hci_event_handler+0x382>
     c1c:	e644      	b.n	8a8 <hci_event_handler+0xc>
     c1e:	6b70      	ldr	r0, [r6, #52]	; 0x34
     c20:	0c00      	lsrs	r0, r0, #16
     c22:	d000      	beq.n	c26 <hci_event_handler+0x38a>
     c24:	e640      	b.n	8a8 <hci_event_handler+0xc>
     c26:	b005      	add	sp, #20
     c28:	bdf0      	pop	{r4, r5, r6, r7, pc}
     c2a:	46c0      	nop			; (mov r8, r8)
     c2c:	1ffff19c 	svcne	0x00fff19c

00000c30 <SimpleLinkWaitEvent>:
     c30:	b508      	push	{r3, lr}
     c32:	4a04      	ldr	r2, [pc, #16]	; (c44 <SimpleLinkWaitEvent+0x14>)
     c34:	8010      	strh	r0, [r2, #0]
     c36:	1c08      	adds	r0, r1, #0
     c38:	2100      	movs	r1, #0
     c3a:	1c0a      	adds	r2, r1, #0
     c3c:	f7ff fe2e 	bl	89c <hci_event_handler>
     c40:	bd08      	pop	{r3, pc}
     c42:	46c0      	nop			; (mov r8, r8)
     c44:	1ffff19c 	svcne	0x00fff19c

00000c48 <hci_command_send>:
     c48:	b538      	push	{r3, r4, r5, lr}
     c4a:	1c03      	adds	r3, r0, #0
     c4c:	1c15      	adds	r5, r2, #0
     c4e:	2201      	movs	r2, #1
     c50:	714a      	strb	r2, [r1, #5]
     c52:	1c0c      	adds	r4, r1, #0
     c54:	1d88      	adds	r0, r1, #6
     c56:	1c19      	adds	r1, r3, #0
     c58:	f7ff fc91 	bl	57e <UINT16_TO_STREAM_f>
     c5c:	1d29      	adds	r1, r5, #4
     c5e:	7005      	strb	r5, [r0, #0]
     c60:	1c20      	adds	r0, r4, #0
     c62:	f000 fa29 	bl	10b8 <SpiWrite>
     c66:	2000      	movs	r0, #0
     c68:	bd38      	pop	{r3, r4, r5, pc}
	...

00000c6c <hci_patch_send>:
     c6c:	b5f0      	push	{r4, r5, r6, r7, lr}
     c6e:	1c1c      	adds	r4, r3, #0
     c70:	2303      	movs	r3, #3
     c72:	b085      	sub	sp, #20
     c74:	714b      	strb	r3, [r1, #5]
     c76:	1ca3      	adds	r3, r4, #2
     c78:	b29b      	uxth	r3, r3
     c7a:	9200      	str	r2, [sp, #0]
     c7c:	1dca      	adds	r2, r1, #7
     c7e:	7188      	strb	r0, [r1, #6]
     c80:	1c0f      	adds	r7, r1, #0
     c82:	1c10      	adds	r0, r2, #0
     c84:	1c19      	adds	r1, r3, #0
     c86:	9302      	str	r3, [sp, #8]
     c88:	9201      	str	r2, [sp, #4]
     c8a:	f7ff fc78 	bl	57e <UINT16_TO_STREAM_f>
     c8e:	23fa      	movs	r3, #250	; 0xfa
     c90:	009e      	lsls	r6, r3, #2
     c92:	1c3b      	adds	r3, r7, #0
     c94:	330b      	adds	r3, #11
     c96:	1c05      	adds	r5, r0, #0
     c98:	9303      	str	r3, [sp, #12]
     c9a:	42b4      	cmp	r4, r6
     c9c:	d811      	bhi.n	cc2 <hci_patch_send+0x56>
     c9e:	1c21      	adds	r1, r4, #0
     ca0:	f7ff fc6d 	bl	57e <UINT16_TO_STREAM_f>
     ca4:	1c21      	adds	r1, r4, #0
     ca6:	1c28      	adds	r0, r5, #0
     ca8:	f7ff fc69 	bl	57e <UINT16_TO_STREAM_f>
     cac:	9900      	ldr	r1, [sp, #0]
     cae:	1c22      	adds	r2, r4, #0
     cb0:	9803      	ldr	r0, [sp, #12]
     cb2:	3406      	adds	r4, #6
     cb4:	f001 fc54 	bl	2560 <memcpy>
     cb8:	b2a1      	uxth	r1, r4
     cba:	1c38      	adds	r0, r7, #0
     cbc:	f000 f9fc 	bl	10b8 <SpiWrite>
     cc0:	e039      	b.n	d36 <hci_patch_send+0xca>
     cc2:	1c31      	adds	r1, r6, #0
     cc4:	1c20      	adds	r0, r4, #0
     cc6:	f005 fd79 	bl	67bc <__aeabi_uidiv>
     cca:	9a02      	ldr	r2, [sp, #8]
     ccc:	0041      	lsls	r1, r0, #1
     cce:	1851      	adds	r1, r2, r1
     cd0:	b289      	uxth	r1, r1
     cd2:	1c28      	adds	r0, r5, #0
     cd4:	f7ff fc53 	bl	57e <UINT16_TO_STREAM_f>
     cd8:	1c31      	adds	r1, r6, #0
     cda:	1c28      	adds	r0, r5, #0
     cdc:	f7ff fc4f 	bl	57e <UINT16_TO_STREAM_f>
     ce0:	1c32      	adds	r2, r6, #0
     ce2:	9900      	ldr	r1, [sp, #0]
     ce4:	9803      	ldr	r0, [sp, #12]
     ce6:	f001 fc3b 	bl	2560 <memcpy>
     cea:	4b14      	ldr	r3, [pc, #80]	; (d3c <hci_patch_send+0xd0>)
     cec:	9a00      	ldr	r2, [sp, #0]
     cee:	18e4      	adds	r4, r4, r3
     cf0:	23fa      	movs	r3, #250	; 0xfa
     cf2:	009b      	lsls	r3, r3, #2
     cf4:	1c38      	adds	r0, r7, #0
     cf6:	4912      	ldr	r1, [pc, #72]	; (d40 <hci_patch_send+0xd4>)
     cf8:	b2a4      	uxth	r4, r4
     cfa:	18d6      	adds	r6, r2, r3
     cfc:	f000 f9dc 	bl	10b8 <SpiWrite>
     d00:	23fa      	movs	r3, #250	; 0xfa
     d02:	009b      	lsls	r3, r3, #2
     d04:	2500      	movs	r5, #0
     d06:	429c      	cmp	r4, r3
     d08:	d903      	bls.n	d12 <hci_patch_send+0xa6>
     d0a:	4a0c      	ldr	r2, [pc, #48]	; (d3c <hci_patch_send+0xd0>)
     d0c:	18a4      	adds	r4, r4, r2
     d0e:	b2a5      	uxth	r5, r4
     d10:	1c1c      	adds	r4, r3, #0
     d12:	1d7b      	adds	r3, r7, #5
     d14:	1c31      	adds	r1, r6, #0
     d16:	801c      	strh	r4, [r3, #0]
     d18:	1c22      	adds	r2, r4, #0
     d1a:	9801      	ldr	r0, [sp, #4]
     d1c:	1936      	adds	r6, r6, r4
     d1e:	3402      	adds	r4, #2
     d20:	9300      	str	r3, [sp, #0]
     d22:	f001 fc1d 	bl	2560 <memcpy>
     d26:	b2a1      	uxth	r1, r4
     d28:	9800      	ldr	r0, [sp, #0]
     d2a:	f000 f9c5 	bl	10b8 <SpiWrite>
     d2e:	2d00      	cmp	r5, #0
     d30:	d001      	beq.n	d36 <hci_patch_send+0xca>
     d32:	1c2c      	adds	r4, r5, #0
     d34:	e7e4      	b.n	d00 <hci_patch_send+0x94>
     d36:	b005      	add	sp, #20
     d38:	bdf0      	pop	{r4, r5, r6, r7, pc}
     d3a:	46c0      	nop			; (mov r8, r8)
     d3c:	fffffc18 			; <UNDEFINED> instruction: 0xfffffc18
     d40:	000003ee 	andeq	r0, r0, lr, ror #7

00000d44 <SpiReceiveHandler>:
     d44:	b508      	push	{r3, lr}
     d46:	4b03      	ldr	r3, [pc, #12]	; (d54 <SpiReceiveHandler+0x10>)
     d48:	2201      	movs	r2, #1
     d4a:	805a      	strh	r2, [r3, #2]
     d4c:	6058      	str	r0, [r3, #4]
     d4e:	f7ff fd8d 	bl	86c <hci_unsolicited_event_handler>
     d52:	bd08      	pop	{r3, pc}
     d54:	1ffff19c 	svcne	0x00fff19c

00000d58 <wlan_init>:
     d58:	b510      	push	{r4, lr}
     d5a:	4c08      	ldr	r4, [pc, #32]	; (d7c <wlan_init+0x24>)
     d5c:	60e1      	str	r1, [r4, #12]
     d5e:	6122      	str	r2, [r4, #16]
     d60:	6163      	str	r3, [r4, #20]
     d62:	9b02      	ldr	r3, [sp, #8]
     d64:	61e3      	str	r3, [r4, #28]
     d66:	9b03      	ldr	r3, [sp, #12]
     d68:	6223      	str	r3, [r4, #32]
     d6a:	9b04      	ldr	r3, [sp, #16]
     d6c:	6263      	str	r3, [r4, #36]	; 0x24
     d6e:	9b05      	ldr	r3, [sp, #20]
     d70:	62a3      	str	r3, [r4, #40]	; 0x28
     d72:	61a0      	str	r0, [r4, #24]
     d74:	2301      	movs	r3, #1
     d76:	3440      	adds	r4, #64	; 0x40
     d78:	7023      	strb	r3, [r4, #0]
     d7a:	bd10      	pop	{r4, pc}
     d7c:	1ffff19c 	svcne	0x00fff19c

00000d80 <wlan_start>:
     d80:	b5f8      	push	{r3, r4, r5, r6, r7, lr}
     d82:	4d25      	ldr	r5, [pc, #148]	; (e18 <wlan_start+0x98>)
     d84:	1c06      	adds	r6, r0, #0
     d86:	1c28      	adds	r0, r5, #0
     d88:	f001 fd14 	bl	27b4 <puts>
     d8c:	4c23      	ldr	r4, [pc, #140]	; (e1c <wlan_start+0x9c>)
     d8e:	2300      	movs	r3, #0
     d90:	63a3      	str	r3, [r4, #56]	; 0x38
     d92:	63e3      	str	r3, [r4, #60]	; 0x3c
     d94:	8023      	strh	r3, [r4, #0]
     d96:	8623      	strh	r3, [r4, #48]	; 0x30
     d98:	8663      	strh	r3, [r4, #50]	; 0x32
     d9a:	86a3      	strh	r3, [r4, #52]	; 0x34
     d9c:	86e3      	strh	r3, [r4, #54]	; 0x36
     d9e:	62e3      	str	r3, [r4, #44]	; 0x2c
     da0:	8063      	strh	r3, [r4, #2]
     da2:	6063      	str	r3, [r4, #4]
     da4:	4b1e      	ldr	r3, [pc, #120]	; (e20 <wlan_start+0xa0>)
     da6:	481f      	ldr	r0, [pc, #124]	; (e24 <wlan_start+0xa4>)
     da8:	60a3      	str	r3, [r4, #8]
     daa:	f000 f84f 	bl	e4c <SpiOpen>
     dae:	69e3      	ldr	r3, [r4, #28]
     db0:	4798      	blx	r3
     db2:	6aa3      	ldr	r3, [r4, #40]	; 0x28
     db4:	1c07      	adds	r7, r0, #0
     db6:	2001      	movs	r0, #1
     db8:	4798      	blx	r3
     dba:	2f00      	cmp	r7, #0
     dbc:	d004      	beq.n	dc8 <wlan_start+0x48>
     dbe:	69e3      	ldr	r3, [r4, #28]
     dc0:	4798      	blx	r3
     dc2:	2800      	cmp	r0, #0
     dc4:	d1fb      	bne.n	dbe <wlan_start+0x3e>
     dc6:	e007      	b.n	dd8 <wlan_start+0x58>
     dc8:	69e3      	ldr	r3, [r4, #28]
     dca:	4798      	blx	r3
     dcc:	2800      	cmp	r0, #0
     dce:	d0fb      	beq.n	dc8 <wlan_start+0x48>
     dd0:	69e3      	ldr	r3, [r4, #28]
     dd2:	4798      	blx	r3
     dd4:	2800      	cmp	r0, #0
     dd6:	d1fb      	bne.n	dd0 <wlan_start+0x50>
     dd8:	1c28      	adds	r0, r5, #0
     dda:	f001 fceb 	bl	27b4 <puts>
     dde:	1e73      	subs	r3, r6, #1
     de0:	419e      	sbcs	r6, r3
     de2:	68a1      	ldr	r1, [r4, #8]
     de4:	0076      	lsls	r6, r6, #1
     de6:	2080      	movs	r0, #128	; 0x80
     de8:	724e      	strb	r6, [r1, #9]
     dea:	2201      	movs	r2, #1
     dec:	01c0      	lsls	r0, r0, #7
     dee:	f7ff ff2b 	bl	c48 <hci_command_send>
     df2:	2080      	movs	r0, #128	; 0x80
     df4:	2100      	movs	r1, #0
     df6:	01c0      	lsls	r0, r0, #7
     df8:	f7ff ff1a 	bl	c30 <SimpleLinkWaitEvent>
     dfc:	480a      	ldr	r0, [pc, #40]	; (e28 <wlan_start+0xa8>)
     dfe:	f001 fcd9 	bl	27b4 <puts>
     e02:	68a1      	ldr	r1, [r4, #8]
     e04:	2200      	movs	r2, #0
     e06:	4809      	ldr	r0, [pc, #36]	; (e2c <wlan_start+0xac>)
     e08:	f7ff ff1e 	bl	c48 <hci_command_send>
     e0c:	4807      	ldr	r0, [pc, #28]	; (e2c <wlan_start+0xac>)
     e0e:	2100      	movs	r1, #0
     e10:	f7ff ff0e 	bl	c30 <SimpleLinkWaitEvent>
     e14:	bdf8      	pop	{r3, r4, r5, r6, r7, pc}
     e16:	46c0      	nop			; (mov r8, r8)
     e18:	0000877e 	andeq	r8, r0, lr, ror r7
     e1c:	1ffff19c 	svcne	0x00fff19c
     e20:	1ffff1e2 	svcne	0x00fff1e2
     e24:	00000d45 	andeq	r0, r0, r5, asr #26
     e28:	00008795 	muleq	r0, r5, r7
     e2c:	0000400b 	andeq	r4, r0, fp

00000e30 <__delay_cycles>:
     e30:	b082      	sub	sp, #8
     e32:	2300      	movs	r3, #0
     e34:	9301      	str	r3, [sp, #4]
     e36:	0880      	lsrs	r0, r0, #2
     e38:	9b01      	ldr	r3, [sp, #4]
     e3a:	4283      	cmp	r3, r0
     e3c:	d203      	bcs.n	e46 <__delay_cycles+0x16>
     e3e:	9b01      	ldr	r3, [sp, #4]
     e40:	3301      	adds	r3, #1
     e42:	9301      	str	r3, [sp, #4]
     e44:	e7f8      	b.n	e38 <__delay_cycles+0x8>
     e46:	b002      	add	sp, #8
     e48:	4770      	bx	lr
	...

00000e4c <SpiOpen>:
     e4c:	b5f7      	push	{r0, r1, r2, r4, r5, r6, r7, lr}
     e4e:	9001      	str	r0, [sp, #4]
     e50:	4812      	ldr	r0, [pc, #72]	; (e9c <SpiOpen+0x50>)
     e52:	f001 fcaf 	bl	27b4 <puts>
     e56:	4e12      	ldr	r6, [pc, #72]	; (ea0 <SpiOpen+0x54>)
     e58:	4c12      	ldr	r4, [pc, #72]	; (ea4 <SpiOpen+0x58>)
     e5a:	2500      	movs	r5, #0
     e5c:	2783      	movs	r7, #131	; 0x83
     e5e:	1c29      	adds	r1, r5, #0
     e60:	1c3a      	adds	r2, r7, #0
     e62:	1c30      	adds	r0, r6, #0
     e64:	60a5      	str	r5, [r4, #8]
     e66:	f001 fb84 	bl	2572 <memset>
     e6a:	1c29      	adds	r1, r5, #0
     e6c:	1c3a      	adds	r2, r7, #0
     e6e:	480e      	ldr	r0, [pc, #56]	; (ea8 <SpiOpen+0x5c>)
     e70:	f001 fb7f 	bl	2572 <memset>
     e74:	9b01      	ldr	r3, [sp, #4]
     e76:	4a0c      	ldr	r2, [pc, #48]	; (ea8 <SpiOpen+0x5c>)
     e78:	6023      	str	r3, [r4, #0]
     e7a:	3282      	adds	r2, #130	; 0x82
     e7c:	6126      	str	r6, [r4, #16]
     e7e:	23de      	movs	r3, #222	; 0xde
     e80:	3682      	adds	r6, #130	; 0x82
     e82:	7033      	strb	r3, [r6, #0]
     e84:	7013      	strb	r3, [r2, #0]
     e86:	4b09      	ldr	r3, [pc, #36]	; (eac <SpiOpen+0x60>)
     e88:	80a5      	strh	r5, [r4, #4]
     e8a:	60e5      	str	r5, [r4, #12]
     e8c:	80e5      	strh	r5, [r4, #6]
     e8e:	6a1b      	ldr	r3, [r3, #32]
     e90:	4798      	blx	r3
     e92:	4807      	ldr	r0, [pc, #28]	; (eb0 <SpiOpen+0x64>)
     e94:	f001 fc8e 	bl	27b4 <puts>
     e98:	bdf7      	pop	{r0, r1, r2, r4, r5, r6, r7, pc}
     e9a:	46c0      	nop			; (mov r8, r8)
     e9c:	000087b5 			; <UNDEFINED> instruction: 0x000087b5
     ea0:	1ffff265 	svcne	0x00fff265
     ea4:	1ffff2e8 	svcne	0x00fff2e8
     ea8:	1ffff1e2 	svcne	0x00fff1e2
     eac:	1ffff19c 	svcne	0x00fff19c
     eb0:	000087c7 	andeq	r8, r0, r7, asr #15

00000eb4 <SetupInterruptSystem>:
     eb4:	4b0f      	ldr	r3, [pc, #60]	; (ef4 <SetupInterruptSystem+0x40>)
     eb6:	4a10      	ldr	r2, [pc, #64]	; (ef8 <SetupInterruptSystem+0x44>)
     eb8:	6c19      	ldr	r1, [r3, #64]	; 0x40
     eba:	400a      	ands	r2, r1
     ebc:	641a      	str	r2, [r3, #64]	; 0x40
     ebe:	6c19      	ldr	r1, [r3, #64]	; 0x40
     ec0:	2280      	movs	r2, #128	; 0x80
     ec2:	0052      	lsls	r2, r2, #1
     ec4:	430a      	orrs	r2, r1
     ec6:	641a      	str	r2, [r3, #64]	; 0x40
     ec8:	6c19      	ldr	r1, [r3, #64]	; 0x40
     eca:	22a0      	movs	r2, #160	; 0xa0
     ecc:	0312      	lsls	r2, r2, #12
     ece:	430a      	orrs	r2, r1
     ed0:	641a      	str	r2, [r3, #64]	; 0x40
     ed2:	6c19      	ldr	r1, [r3, #64]	; 0x40
     ed4:	2280      	movs	r2, #128	; 0x80
     ed6:	0452      	lsls	r2, r2, #17
     ed8:	430a      	orrs	r2, r1
     eda:	641a      	str	r2, [r3, #64]	; 0x40
     edc:	4a07      	ldr	r2, [pc, #28]	; (efc <SetupInterruptSystem+0x48>)
     ede:	23c7      	movs	r3, #199	; 0xc7
     ee0:	009b      	lsls	r3, r3, #2
     ee2:	58d0      	ldr	r0, [r2, r3]
     ee4:	4906      	ldr	r1, [pc, #24]	; (f00 <SetupInterruptSystem+0x4c>)
     ee6:	4001      	ands	r1, r0
     ee8:	2080      	movs	r0, #128	; 0x80
     eea:	03c0      	lsls	r0, r0, #15
     eec:	4301      	orrs	r1, r0
     eee:	50d1      	str	r1, [r2, r3]
     ef0:	2000      	movs	r0, #0
     ef2:	4770      	bx	lr
     ef4:	40049000 	andmi	r9, r4, r0
     ef8:	fffff8ff 			; <UNDEFINED> instruction: 0xfffff8ff
     efc:	e000e100 	and	lr, r0, r0, lsl #2
     f00:	ff00ffff 			; <UNDEFINED> instruction: 0xff00ffff

00000f04 <init_spi>:
     f04:	b570      	push	{r4, r5, r6, lr}
     f06:	4835      	ldr	r0, [pc, #212]	; (fdc <init_spi+0xd8>)
     f08:	f001 fc54 	bl	27b4 <puts>
     f0c:	4b34      	ldr	r3, [pc, #208]	; (fe0 <init_spi+0xdc>)
     f0e:	4a35      	ldr	r2, [pc, #212]	; (fe4 <init_spi+0xe0>)
     f10:	2180      	movs	r1, #128	; 0x80
     f12:	5898      	ldr	r0, [r3, r2]
     f14:	03c9      	lsls	r1, r1, #15
     f16:	4301      	orrs	r1, r0
     f18:	5099      	str	r1, [r3, r2]
     f1a:	2288      	movs	r2, #136	; 0x88
     f1c:	0152      	lsls	r2, r2, #5
     f1e:	5899      	ldr	r1, [r3, r2]
     f20:	200c      	movs	r0, #12
     f22:	4381      	bics	r1, r0
     f24:	5099      	str	r1, [r3, r2]
     f26:	4a30      	ldr	r2, [pc, #192]	; (fe8 <init_spi+0xe4>)
     f28:	21f8      	movs	r1, #248	; 0xf8
     f2a:	5898      	ldr	r0, [r3, r2]
     f2c:	0189      	lsls	r1, r1, #6
     f2e:	4301      	orrs	r1, r0
     f30:	5099      	str	r1, [r3, r2]
     f32:	4b2e      	ldr	r3, [pc, #184]	; (fec <init_spi+0xe8>)
     f34:	2440      	movs	r4, #64	; 0x40
     f36:	681a      	ldr	r2, [r3, #0]
     f38:	492d      	ldr	r1, [pc, #180]	; (ff0 <init_spi+0xec>)
     f3a:	b2d2      	uxtb	r2, r2
     f3c:	43a2      	bics	r2, r4
     f3e:	701a      	strb	r2, [r3, #0]
     f40:	4a2c      	ldr	r2, [pc, #176]	; (ff4 <init_spi+0xf0>)
     f42:	2590      	movs	r5, #144	; 0x90
     f44:	6890      	ldr	r0, [r2, #8]
     f46:	00ad      	lsls	r5, r5, #2
     f48:	4008      	ands	r0, r1
     f4a:	6090      	str	r0, [r2, #8]
     f4c:	6890      	ldr	r0, [r2, #8]
     f4e:	4328      	orrs	r0, r5
     f50:	6090      	str	r0, [r2, #8]
     f52:	68d0      	ldr	r0, [r2, #12]
     f54:	4008      	ands	r0, r1
     f56:	60d0      	str	r0, [r2, #12]
     f58:	68d6      	ldr	r6, [r2, #12]
     f5a:	2080      	movs	r0, #128	; 0x80
     f5c:	0080      	lsls	r0, r0, #2
     f5e:	4330      	orrs	r0, r6
     f60:	60d0      	str	r0, [r2, #12]
     f62:	4825      	ldr	r0, [pc, #148]	; (ff8 <init_spi+0xf4>)
     f64:	6946      	ldr	r6, [r0, #20]
     f66:	400e      	ands	r6, r1
     f68:	6146      	str	r6, [r0, #20]
     f6a:	6946      	ldr	r6, [r0, #20]
     f6c:	4335      	orrs	r5, r6
     f6e:	6145      	str	r5, [r0, #20]
     f70:	6810      	ldr	r0, [r2, #0]
     f72:	2502      	movs	r5, #2
     f74:	4001      	ands	r1, r0
     f76:	6011      	str	r1, [r2, #0]
     f78:	6810      	ldr	r0, [r2, #0]
     f7a:	21a0      	movs	r1, #160	; 0xa0
     f7c:	0049      	lsls	r1, r1, #1
     f7e:	4301      	orrs	r1, r0
     f80:	6011      	str	r1, [r2, #0]
     f82:	491e      	ldr	r1, [pc, #120]	; (ffc <init_spi+0xf8>)
     f84:	2201      	movs	r2, #1
     f86:	6948      	ldr	r0, [r1, #20]
     f88:	4310      	orrs	r0, r2
     f8a:	6148      	str	r0, [r1, #20]
     f8c:	6818      	ldr	r0, [r3, #0]
     f8e:	2110      	movs	r1, #16
     f90:	b2c0      	uxtb	r0, r0
     f92:	4308      	orrs	r0, r1
     f94:	7018      	strb	r0, [r3, #0]
     f96:	2021      	movs	r0, #33	; 0x21
     f98:	7098      	strb	r0, [r3, #2]
     f9a:	6818      	ldr	r0, [r3, #0]
     f9c:	b2c0      	uxtb	r0, r0
     f9e:	4328      	orrs	r0, r5
     fa0:	7018      	strb	r0, [r3, #0]
     fa2:	6818      	ldr	r0, [r3, #0]
     fa4:	4088      	lsls	r0, r1
     fa6:	0e00      	lsrs	r0, r0, #24
     fa8:	4388      	bics	r0, r1
     faa:	7058      	strb	r0, [r3, #1]
     fac:	6819      	ldr	r1, [r3, #0]
     fae:	2004      	movs	r0, #4
     fb0:	b2c9      	uxtb	r1, r1
     fb2:	4301      	orrs	r1, r0
     fb4:	7019      	strb	r1, [r3, #0]
     fb6:	6818      	ldr	r0, [r3, #0]
     fb8:	21f7      	movs	r1, #247	; 0xf7
     fba:	4001      	ands	r1, r0
     fbc:	7019      	strb	r1, [r3, #0]
     fbe:	6819      	ldr	r1, [r3, #0]
     fc0:	b2c9      	uxtb	r1, r1
     fc2:	4391      	bics	r1, r2
     fc4:	7019      	strb	r1, [r3, #0]
     fc6:	681a      	ldr	r2, [r3, #0]
     fc8:	b2d2      	uxtb	r2, r2
     fca:	4314      	orrs	r4, r2
     fcc:	701c      	strb	r4, [r3, #0]
     fce:	f7ff ff71 	bl	eb4 <SetupInterruptSystem>
     fd2:	480b      	ldr	r0, [pc, #44]	; (1000 <init_spi+0xfc>)
     fd4:	f001 fbee 	bl	27b4 <puts>
     fd8:	2000      	movs	r0, #0
     fda:	bd70      	pop	{r4, r5, r6, pc}
     fdc:	000087e2 	andeq	r8, r0, r2, ror #15
     fe0:	40047000 	andmi	r7, r4, r0
     fe4:	00001034 	andeq	r1, r0, r4, lsr r0
     fe8:	00001038 	andeq	r1, r0, r8, lsr r0
     fec:	40076000 	andmi	r6, r7, r0
     ff0:	fffff8ff 			; <UNDEFINED> instruction: 0xfffff8ff
     ff4:	4004c000 	andmi	ip, r4, r0
     ff8:	4004b000 	andmi	fp, r4, r0
     ffc:	f80ff0c0 			; <UNDEFINED> instruction: 0xf80ff0c0
    1000:	000087f5 	strdeq	r8, [r0], -r5

00001004 <SpiWriteDataSynchronous>:
    1004:	b570      	push	{r4, r5, r6, lr}
    1006:	1c05      	adds	r5, r0, #0
    1008:	4810      	ldr	r0, [pc, #64]	; (104c <SpiWriteDataSynchronous+0x48>)
    100a:	1c0e      	adds	r6, r1, #0
    100c:	f001 fbd2 	bl	27b4 <puts>
    1010:	1c2c      	adds	r4, r5, #0
    1012:	1b63      	subs	r3, r4, r5
    1014:	b29b      	uxth	r3, r3
    1016:	42b3      	cmp	r3, r6
    1018:	d210      	bcs.n	103c <SpiWriteDataSynchronous+0x38>
    101a:	7821      	ldrb	r1, [r4, #0]
    101c:	480c      	ldr	r0, [pc, #48]	; (1050 <SpiWriteDataSynchronous+0x4c>)
    101e:	f001 fb4d 	bl	26bc <iprintf>
    1022:	4b0c      	ldr	r3, [pc, #48]	; (1054 <SpiWriteDataSynchronous+0x50>)
    1024:	681a      	ldr	r2, [r3, #0]
    1026:	0091      	lsls	r1, r2, #2
    1028:	d5fb      	bpl.n	1022 <SpiWriteDataSynchronous+0x1e>
    102a:	7822      	ldrb	r2, [r4, #0]
    102c:	715a      	strb	r2, [r3, #5]
    102e:	681a      	ldr	r2, [r3, #0]
    1030:	2a00      	cmp	r2, #0
    1032:	dafc      	bge.n	102e <SpiWriteDataSynchronous+0x2a>
    1034:	4b07      	ldr	r3, [pc, #28]	; (1054 <SpiWriteDataSynchronous+0x50>)
    1036:	3401      	adds	r4, #1
    1038:	685b      	ldr	r3, [r3, #4]
    103a:	e7ea      	b.n	1012 <SpiWriteDataSynchronous+0xe>
    103c:	4806      	ldr	r0, [pc, #24]	; (1058 <SpiWriteDataSynchronous+0x54>)
    103e:	f001 fbb9 	bl	27b4 <puts>
    1042:	4806      	ldr	r0, [pc, #24]	; (105c <SpiWriteDataSynchronous+0x58>)
    1044:	f001 fbb6 	bl	27b4 <puts>
    1048:	bd70      	pop	{r4, r5, r6, pc}
    104a:	46c0      	nop			; (mov r8, r8)
    104c:	00008811 	andeq	r8, r0, r1, lsl r8
    1050:	00008839 	andeq	r8, r0, r9, lsr r8
    1054:	40076000 	andmi	r6, r7, r0
    1058:	0000877c 	andeq	r8, r0, ip, ror r7
    105c:	0000883f 	andeq	r8, r0, pc, lsr r8

00001060 <SpiFirstWrite>:
    1060:	b5f8      	push	{r3, r4, r5, r6, r7, lr}
    1062:	4c12      	ldr	r4, [pc, #72]	; (10ac <SpiFirstWrite+0x4c>)
    1064:	1c05      	adds	r5, r0, #0
    1066:	4812      	ldr	r0, [pc, #72]	; (10b0 <SpiFirstWrite+0x50>)
    1068:	1c0f      	adds	r7, r1, #0
    106a:	f001 fba3 	bl	27b4 <puts>
    106e:	6823      	ldr	r3, [r4, #0]
    1070:	2201      	movs	r2, #1
    1072:	2696      	movs	r6, #150	; 0x96
    1074:	4393      	bics	r3, r2
    1076:	0136      	lsls	r6, r6, #4
    1078:	6023      	str	r3, [r4, #0]
    107a:	1c30      	adds	r0, r6, #0
    107c:	f7ff fed8 	bl	e30 <__delay_cycles>
    1080:	1c28      	adds	r0, r5, #0
    1082:	2104      	movs	r1, #4
    1084:	f7ff ffbe 	bl	1004 <SpiWriteDataSynchronous>
    1088:	3f04      	subs	r7, #4
    108a:	1c30      	adds	r0, r6, #0
    108c:	f7ff fed0 	bl	e30 <__delay_cycles>
    1090:	1d28      	adds	r0, r5, #4
    1092:	b2b9      	uxth	r1, r7
    1094:	f7ff ffb6 	bl	1004 <SpiWriteDataSynchronous>
    1098:	4b06      	ldr	r3, [pc, #24]	; (10b4 <SpiFirstWrite+0x54>)
    109a:	2202      	movs	r2, #2
    109c:	609a      	str	r2, [r3, #8]
    109e:	6823      	ldr	r3, [r4, #0]
    10a0:	2201      	movs	r2, #1
    10a2:	4313      	orrs	r3, r2
    10a4:	2000      	movs	r0, #0
    10a6:	6023      	str	r3, [r4, #0]
    10a8:	bdf8      	pop	{r3, r4, r5, r6, r7, pc}
    10aa:	46c0      	nop			; (mov r8, r8)
    10ac:	f80ff0c0 			; <UNDEFINED> instruction: 0xf80ff0c0
    10b0:	00008865 	andeq	r8, r0, r5, ror #16
    10b4:	1ffff2e8 	svcne	0x00fff2e8

000010b8 <SpiWrite>:
    10b8:	b5f7      	push	{r0, r1, r2, r4, r5, r6, r7, lr}
    10ba:	1c05      	adds	r5, r0, #0
    10bc:	4827      	ldr	r0, [pc, #156]	; (115c <SpiWrite+0xa4>)
    10be:	1c0e      	adds	r6, r1, #0
    10c0:	f001 fb78 	bl	27b4 <puts>
    10c4:	2201      	movs	r2, #1
    10c6:	2301      	movs	r3, #1
    10c8:	43b2      	bics	r2, r6
    10ca:	702b      	strb	r3, [r5, #0]
    10cc:	18b3      	adds	r3, r6, r2
    10ce:	0a19      	lsrs	r1, r3, #8
    10d0:	70ab      	strb	r3, [r5, #2]
    10d2:	2300      	movs	r3, #0
    10d4:	70eb      	strb	r3, [r5, #3]
    10d6:	712b      	strb	r3, [r5, #4]
    10d8:	4b21      	ldr	r3, [pc, #132]	; (1160 <SpiWrite+0xa8>)
    10da:	7069      	strb	r1, [r5, #1]
    10dc:	3382      	adds	r3, #130	; 0x82
    10de:	781b      	ldrb	r3, [r3, #0]
    10e0:	2bde      	cmp	r3, #222	; 0xde
    10e2:	d003      	beq.n	10ec <SpiWrite+0x34>
    10e4:	481f      	ldr	r0, [pc, #124]	; (1164 <SpiWrite+0xac>)
    10e6:	f001 fb65 	bl	27b4 <puts>
    10ea:	e7fe      	b.n	10ea <SpiWrite+0x32>
    10ec:	4f1e      	ldr	r7, [pc, #120]	; (1168 <SpiWrite+0xb0>)
    10ee:	68bb      	ldr	r3, [r7, #8]
    10f0:	1c3c      	adds	r4, r7, #0
    10f2:	2b00      	cmp	r3, #0
    10f4:	d100      	bne.n	10f8 <SpiWrite+0x40>
    10f6:	e7fe      	b.n	10f6 <SpiWrite+0x3e>
    10f8:	3605      	adds	r6, #5
    10fa:	b2b6      	uxth	r6, r6
    10fc:	18b2      	adds	r2, r6, r2
    10fe:	b292      	uxth	r2, r2
    1100:	9201      	str	r2, [sp, #4]
    1102:	2b01      	cmp	r3, #1
    1104:	d104      	bne.n	1110 <SpiWrite+0x58>
    1106:	1c28      	adds	r0, r5, #0
    1108:	1c11      	adds	r1, r2, #0
    110a:	f7ff ffa9 	bl	1060 <SpiFirstWrite>
    110e:	e01f      	b.n	1150 <SpiWrite+0x98>
    1110:	4e16      	ldr	r6, [pc, #88]	; (116c <SpiWrite+0xb4>)
    1112:	6a73      	ldr	r3, [r6, #36]	; 0x24
    1114:	4798      	blx	r3
    1116:	68bf      	ldr	r7, [r7, #8]
    1118:	2f02      	cmp	r7, #2
    111a:	d000      	beq.n	111e <SpiWrite+0x66>
    111c:	e7fe      	b.n	111c <SpiWrite+0x64>
    111e:	60e5      	str	r5, [r4, #12]
    1120:	2303      	movs	r3, #3
    1122:	4d13      	ldr	r5, [pc, #76]	; (1170 <SpiWrite+0xb8>)
    1124:	9a01      	ldr	r2, [sp, #4]
    1126:	60a3      	str	r3, [r4, #8]
    1128:	682b      	ldr	r3, [r5, #0]
    112a:	80a2      	strh	r2, [r4, #4]
    112c:	2201      	movs	r2, #1
    112e:	4393      	bics	r3, r2
    1130:	602b      	str	r3, [r5, #0]
    1132:	6a33      	ldr	r3, [r6, #32]
    1134:	4798      	blx	r3
    1136:	69f3      	ldr	r3, [r6, #28]
    1138:	4798      	blx	r3
    113a:	2800      	cmp	r0, #0
    113c:	d108      	bne.n	1150 <SpiWrite+0x98>
    113e:	88a1      	ldrh	r1, [r4, #4]
    1140:	68e0      	ldr	r0, [r4, #12]
    1142:	f7ff ff5f 	bl	1004 <SpiWriteDataSynchronous>
    1146:	60a7      	str	r7, [r4, #8]
    1148:	682b      	ldr	r3, [r5, #0]
    114a:	2201      	movs	r2, #1
    114c:	4313      	orrs	r3, r2
    114e:	602b      	str	r3, [r5, #0]
    1150:	68a3      	ldr	r3, [r4, #8]
    1152:	2b02      	cmp	r3, #2
    1154:	d000      	beq.n	1158 <SpiWrite+0xa0>
    1156:	e7fe      	b.n	1156 <SpiWrite+0x9e>
    1158:	2000      	movs	r0, #0
    115a:	bdfe      	pop	{r1, r2, r3, r4, r5, r6, r7, pc}
    115c:	0000887d 	andeq	r8, r0, sp, ror r8
    1160:	1ffff1e2 	svcne	0x00fff1e2
    1164:	00008890 	muleq	r0, r0, r8
    1168:	1ffff2e8 	svcne	0x00fff2e8
    116c:	1ffff19c 	svcne	0x00fff19c
    1170:	f80ff0c0 			; <UNDEFINED> instruction: 0xf80ff0c0

00001174 <SpiReadDataSynchronous>:
    1174:	b570      	push	{r4, r5, r6, lr}
    1176:	1c06      	adds	r6, r0, #0
    1178:	4810      	ldr	r0, [pc, #64]	; (11bc <SpiReadDataSynchronous+0x48>)
    117a:	1c0d      	adds	r5, r1, #0
    117c:	f001 fb1a 	bl	27b4 <puts>
    1180:	2400      	movs	r4, #0
    1182:	b2a3      	uxth	r3, r4
    1184:	42ab      	cmp	r3, r5
    1186:	d214      	bcs.n	11b2 <SpiReadDataSynchronous+0x3e>
    1188:	4b0d      	ldr	r3, [pc, #52]	; (11c0 <SpiReadDataSynchronous+0x4c>)
    118a:	681a      	ldr	r2, [r3, #0]
    118c:	0091      	lsls	r1, r2, #2
    118e:	d5fb      	bpl.n	1188 <SpiReadDataSynchronous+0x14>
    1190:	4a0c      	ldr	r2, [pc, #48]	; (11c4 <SpiReadDataSynchronous+0x50>)
    1192:	5ca2      	ldrb	r2, [r4, r2]
    1194:	715a      	strb	r2, [r3, #5]
    1196:	681a      	ldr	r2, [r3, #0]
    1198:	2a00      	cmp	r2, #0
    119a:	dafc      	bge.n	1196 <SpiReadDataSynchronous+0x22>
    119c:	4b08      	ldr	r3, [pc, #32]	; (11c0 <SpiReadDataSynchronous+0x4c>)
    119e:	480a      	ldr	r0, [pc, #40]	; (11c8 <SpiReadDataSynchronous+0x54>)
    11a0:	685b      	ldr	r3, [r3, #4]
    11a2:	041b      	lsls	r3, r3, #16
    11a4:	0e1b      	lsrs	r3, r3, #24
    11a6:	5533      	strb	r3, [r6, r4]
    11a8:	b2d9      	uxtb	r1, r3
    11aa:	f001 fa87 	bl	26bc <iprintf>
    11ae:	3401      	adds	r4, #1
    11b0:	e7e7      	b.n	1182 <SpiReadDataSynchronous+0xe>
    11b2:	4806      	ldr	r0, [pc, #24]	; (11cc <SpiReadDataSynchronous+0x58>)
    11b4:	f001 fafe 	bl	27b4 <puts>
    11b8:	bd70      	pop	{r4, r5, r6, pc}
    11ba:	46c0      	nop			; (mov r8, r8)
    11bc:	000088c4 	andeq	r8, r0, r4, asr #17
    11c0:	40076000 	andmi	r6, r7, r0
    11c4:	1ffff0c4 	svcne	0x00fff0c4
    11c8:	00008839 	andeq	r8, r0, r9, lsr r8
    11cc:	0000877c 	andeq	r8, r0, ip, ror r7

000011d0 <SpiReadHeader>:
    11d0:	b508      	push	{r3, lr}
    11d2:	4804      	ldr	r0, [pc, #16]	; (11e4 <SpiReadHeader+0x14>)
    11d4:	f001 faee 	bl	27b4 <puts>
    11d8:	4b03      	ldr	r3, [pc, #12]	; (11e8 <SpiReadHeader+0x18>)
    11da:	210a      	movs	r1, #10
    11dc:	6918      	ldr	r0, [r3, #16]
    11de:	f7ff ffc9 	bl	1174 <SpiReadDataSynchronous>
    11e2:	bd08      	pop	{r3, pc}
    11e4:	000088e5 	andeq	r8, r0, r5, ror #17
    11e8:	1ffff2e8 	svcne	0x00fff2e8

000011ec <SpiReadDataCont>:
    11ec:	b538      	push	{r3, r4, r5, lr}
    11ee:	4816      	ldr	r0, [pc, #88]	; (1248 <SpiReadDataCont+0x5c>)
    11f0:	f001 fae0 	bl	27b4 <puts>
    11f4:	4d15      	ldr	r5, [pc, #84]	; (124c <SpiReadDataCont+0x60>)
    11f6:	692c      	ldr	r4, [r5, #16]
    11f8:	7963      	ldrb	r3, [r4, #5]
    11fa:	2b02      	cmp	r3, #2
    11fc:	d002      	beq.n	1204 <SpiReadDataCont+0x18>
    11fe:	2b04      	cmp	r3, #4
    1200:	d011      	beq.n	1226 <SpiReadDataCont+0x3a>
    1202:	e01e      	b.n	1242 <SpiReadDataCont+0x56>
    1204:	2103      	movs	r1, #3
    1206:	1d60      	adds	r0, r4, #5
    1208:	f7ff f9be 	bl	588 <STREAM_TO_UINT16_f>
    120c:	1c01      	adds	r1, r0, #0
    120e:	07c2      	lsls	r2, r0, #31
    1210:	d401      	bmi.n	1216 <SpiReadDataCont+0x2a>
    1212:	3101      	adds	r1, #1
    1214:	e001      	b.n	121a <SpiReadDataCont+0x2e>
    1216:	2800      	cmp	r0, #0
    1218:	d013      	beq.n	1242 <SpiReadDataCont+0x56>
    121a:	1c20      	adds	r0, r4, #0
    121c:	300a      	adds	r0, #10
    121e:	b289      	uxth	r1, r1
    1220:	f7ff ffa8 	bl	1174 <SpiReadDataSynchronous>
    1224:	e00d      	b.n	1242 <SpiReadDataCont+0x56>
    1226:	7a21      	ldrb	r1, [r4, #8]
    1228:	1e4b      	subs	r3, r1, #1
    122a:	07da      	lsls	r2, r3, #31
    122c:	d400      	bmi.n	1230 <SpiReadDataCont+0x44>
    122e:	1c19      	adds	r1, r3, #0
    1230:	2900      	cmp	r1, #0
    1232:	d004      	beq.n	123e <SpiReadDataCont+0x52>
    1234:	1c20      	adds	r0, r4, #0
    1236:	300a      	adds	r0, #10
    1238:	b289      	uxth	r1, r1
    123a:	f7ff ff9b 	bl	1174 <SpiReadDataSynchronous>
    123e:	2308      	movs	r3, #8
    1240:	60ab      	str	r3, [r5, #8]
    1242:	2000      	movs	r0, #0
    1244:	bd38      	pop	{r3, r4, r5, pc}
    1246:	46c0      	nop			; (mov r8, r8)
    1248:	000088fd 	strdeq	r8, [r0], -sp
    124c:	1ffff2e8 	svcne	0x00fff2e8

00001250 <SpiPauseSpi>:
    1250:	b508      	push	{r3, lr}
    1252:	4805      	ldr	r0, [pc, #20]	; (1268 <SpiPauseSpi+0x18>)
    1254:	f001 faae 	bl	27b4 <puts>
    1258:	4b04      	ldr	r3, [pc, #16]	; (126c <SpiPauseSpi+0x1c>)
    125a:	2200      	movs	r2, #0
    125c:	701a      	strb	r2, [r3, #0]
    125e:	4b04      	ldr	r3, [pc, #16]	; (1270 <SpiPauseSpi+0x20>)
    1260:	6a5b      	ldr	r3, [r3, #36]	; 0x24
    1262:	4798      	blx	r3
    1264:	bd08      	pop	{r3, pc}
    1266:	46c0      	nop			; (mov r8, r8)
    1268:	00008917 	andeq	r8, r0, r7, lsl r9
    126c:	1ffff1e0 	svcne	0x00fff1e0
    1270:	1ffff19c 	svcne	0x00fff19c

00001274 <SpiResumeSpi>:
    1274:	b508      	push	{r3, lr}
    1276:	4805      	ldr	r0, [pc, #20]	; (128c <SpiResumeSpi+0x18>)
    1278:	f001 fa9c 	bl	27b4 <puts>
    127c:	4b04      	ldr	r3, [pc, #16]	; (1290 <SpiResumeSpi+0x1c>)
    127e:	2201      	movs	r2, #1
    1280:	701a      	strb	r2, [r3, #0]
    1282:	4b04      	ldr	r3, [pc, #16]	; (1294 <SpiResumeSpi+0x20>)
    1284:	6a1b      	ldr	r3, [r3, #32]
    1286:	4798      	blx	r3
    1288:	bd08      	pop	{r3, pc}
    128a:	46c0      	nop			; (mov r8, r8)
    128c:	0000892d 	andeq	r8, r0, sp, lsr #18
    1290:	1ffff1e0 	svcne	0x00fff1e0
    1294:	1ffff19c 	svcne	0x00fff19c

00001298 <SpiTriggerRxProcessing>:
    1298:	b508      	push	{r3, lr}
    129a:	480d      	ldr	r0, [pc, #52]	; (12d0 <SpiTriggerRxProcessing+0x38>)
    129c:	f001 fa8a 	bl	27b4 <puts>
    12a0:	f7ff ffd6 	bl	1250 <SpiPauseSpi>
    12a4:	4b0b      	ldr	r3, [pc, #44]	; (12d4 <SpiTriggerRxProcessing+0x3c>)
    12a6:	2101      	movs	r1, #1
    12a8:	681a      	ldr	r2, [r3, #0]
    12aa:	430a      	orrs	r2, r1
    12ac:	601a      	str	r2, [r3, #0]
    12ae:	4b0a      	ldr	r3, [pc, #40]	; (12d8 <SpiTriggerRxProcessing+0x40>)
    12b0:	6918      	ldr	r0, [r3, #16]
    12b2:	1c02      	adds	r2, r0, #0
    12b4:	3282      	adds	r2, #130	; 0x82
    12b6:	7812      	ldrb	r2, [r2, #0]
    12b8:	2ade      	cmp	r2, #222	; 0xde
    12ba:	d003      	beq.n	12c4 <SpiTriggerRxProcessing+0x2c>
    12bc:	4807      	ldr	r0, [pc, #28]	; (12dc <SpiTriggerRxProcessing+0x44>)
    12be:	f001 fa79 	bl	27b4 <puts>
    12c2:	e7fe      	b.n	12c2 <SpiTriggerRxProcessing+0x2a>
    12c4:	2202      	movs	r2, #2
    12c6:	609a      	str	r2, [r3, #8]
    12c8:	3005      	adds	r0, #5
    12ca:	681b      	ldr	r3, [r3, #0]
    12cc:	4798      	blx	r3
    12ce:	bd08      	pop	{r3, pc}
    12d0:	00008944 	andeq	r8, r0, r4, asr #18
    12d4:	f80ff0c0 			; <UNDEFINED> instruction: 0xf80ff0c0
    12d8:	1ffff2e8 	svcne	0x00fff2e8
    12dc:	00008965 	andeq	r8, r0, r5, ror #18

000012e0 <SSIContReadOperation>:
    12e0:	b508      	push	{r3, lr}
    12e2:	4806      	ldr	r0, [pc, #24]	; (12fc <SSIContReadOperation+0x1c>)
    12e4:	f001 fa66 	bl	27b4 <puts>
    12e8:	f7ff ff80 	bl	11ec <SpiReadDataCont>
    12ec:	2800      	cmp	r0, #0
    12ee:	d104      	bne.n	12fa <SSIContReadOperation+0x1a>
    12f0:	4803      	ldr	r0, [pc, #12]	; (1300 <SSIContReadOperation+0x20>)
    12f2:	f001 fa5f 	bl	27b4 <puts>
    12f6:	f7ff ffcf 	bl	1298 <SpiTriggerRxProcessing>
    12fa:	bd08      	pop	{r3, pc}
    12fc:	0000898d 	andeq	r8, r0, sp, lsl #19
    1300:	000089ac 	andeq	r8, r0, ip, lsr #19

00001304 <WriteWlanPin>:
    1304:	b510      	push	{r4, lr}
    1306:	1c04      	adds	r4, r0, #0
    1308:	1c21      	adds	r1, r4, #0
    130a:	4809      	ldr	r0, [pc, #36]	; (1330 <WriteWlanPin+0x2c>)
    130c:	f001 f9d6 	bl	26bc <iprintf>
    1310:	2096      	movs	r0, #150	; 0x96
    1312:	0100      	lsls	r0, r0, #4
    1314:	f7ff fd8c 	bl	e30 <__delay_cycles>
    1318:	4b06      	ldr	r3, [pc, #24]	; (1334 <WriteWlanPin+0x30>)
    131a:	6819      	ldr	r1, [r3, #0]
    131c:	2c00      	cmp	r4, #0
    131e:	d003      	beq.n	1328 <WriteWlanPin+0x24>
    1320:	2280      	movs	r2, #128	; 0x80
    1322:	0192      	lsls	r2, r2, #6
    1324:	430a      	orrs	r2, r1
    1326:	e001      	b.n	132c <WriteWlanPin+0x28>
    1328:	4a03      	ldr	r2, [pc, #12]	; (1338 <WriteWlanPin+0x34>)
    132a:	400a      	ands	r2, r1
    132c:	601a      	str	r2, [r3, #0]
    132e:	bd10      	pop	{r4, pc}
    1330:	000089c5 	andeq	r8, r0, r5, asr #19
    1334:	f80ff000 			; <UNDEFINED> instruction: 0xf80ff000
    1338:	ffffdfff 			; <UNDEFINED> instruction: 0xffffdfff

0000133c <ReadWlanInterruptPin>:
    133c:	4b05      	ldr	r3, [pc, #20]	; (1354 <ReadWlanInterruptPin+0x18>)
    133e:	b510      	push	{r4, lr}
    1340:	691c      	ldr	r4, [r3, #16]
    1342:	4805      	ldr	r0, [pc, #20]	; (1358 <ReadWlanInterruptPin+0x1c>)
    1344:	03e4      	lsls	r4, r4, #15
    1346:	0fe4      	lsrs	r4, r4, #31
    1348:	1c21      	adds	r1, r4, #0
    134a:	f001 f9b7 	bl	26bc <iprintf>
    134e:	1c20      	adds	r0, r4, #0
    1350:	bd10      	pop	{r4, pc}
    1352:	46c0      	nop			; (mov r8, r8)
    1354:	f80ff000 			; <UNDEFINED> instruction: 0xf80ff000
    1358:	000089e2 	andeq	r8, r0, r2, ror #19

0000135c <WlanInterruptEnable>:
    135c:	b508      	push	{r3, lr}
    135e:	4805      	ldr	r0, [pc, #20]	; (1374 <WlanInterruptEnable+0x18>)
    1360:	f001 fa28 	bl	27b4 <puts>
    1364:	4b04      	ldr	r3, [pc, #16]	; (1378 <WlanInterruptEnable+0x1c>)
    1366:	2201      	movs	r2, #1
    1368:	701a      	strb	r2, [r3, #0]
    136a:	2280      	movs	r2, #128	; 0x80
    136c:	4b03      	ldr	r3, [pc, #12]	; (137c <WlanInterruptEnable+0x20>)
    136e:	05d2      	lsls	r2, r2, #23
    1370:	601a      	str	r2, [r3, #0]
    1372:	bd08      	pop	{r3, pc}
    1374:	00008a08 	andeq	r8, r0, r8, lsl #20
    1378:	1ffff1e0 	svcne	0x00fff1e0
    137c:	e000e100 	and	lr, r0, r0, lsl #2

00001380 <WlanInterruptDisable>:
    1380:	b508      	push	{r3, lr}
    1382:	4805      	ldr	r0, [pc, #20]	; (1398 <WlanInterruptDisable+0x18>)
    1384:	f001 fa16 	bl	27b4 <puts>
    1388:	4b04      	ldr	r3, [pc, #16]	; (139c <WlanInterruptDisable+0x1c>)
    138a:	2200      	movs	r2, #0
    138c:	701a      	strb	r2, [r3, #0]
    138e:	2280      	movs	r2, #128	; 0x80
    1390:	4b03      	ldr	r3, [pc, #12]	; (13a0 <WlanInterruptDisable+0x20>)
    1392:	05d2      	lsls	r2, r2, #23
    1394:	67da      	str	r2, [r3, #124]	; 0x7c
    1396:	bd08      	pop	{r3, pc}
    1398:	00008a27 	andeq	r8, r0, r7, lsr #20
    139c:	1ffff1e0 	svcne	0x00fff1e0
    13a0:	e000e104 	and	lr, r0, r4, lsl #2

000013a4 <sendDriverPatch>:
    13a4:	2300      	movs	r3, #0
    13a6:	6003      	str	r3, [r0, #0]
    13a8:	1c18      	adds	r0, r3, #0
    13aa:	4770      	bx	lr

000013ac <sendBootLoaderPatch>:
    13ac:	2300      	movs	r3, #0
    13ae:	6003      	str	r3, [r0, #0]
    13b0:	1c18      	adds	r0, r3, #0
    13b2:	4770      	bx	lr

000013b4 <sendWLFWPatch>:
    13b4:	2300      	movs	r3, #0
    13b6:	6003      	str	r3, [r0, #0]
    13b8:	1c18      	adds	r0, r3, #0
    13ba:	4770      	bx	lr

000013bc <PORTA_IRQHandler>:
    13bc:	b570      	push	{r4, r5, r6, lr}
    13be:	4e1c      	ldr	r6, [pc, #112]	; (1430 <PORTA_IRQHandler+0x74>)
    13c0:	2501      	movs	r5, #1
    13c2:	481c      	ldr	r0, [pc, #112]	; (1434 <PORTA_IRQHandler+0x78>)
    13c4:	7035      	strb	r5, [r6, #0]
    13c6:	f001 f9f5 	bl	27b4 <puts>
    13ca:	4b1b      	ldr	r3, [pc, #108]	; (1438 <PORTA_IRQHandler+0x7c>)
    13cc:	2280      	movs	r2, #128	; 0x80
    13ce:	6c19      	ldr	r1, [r3, #64]	; 0x40
    13d0:	0452      	lsls	r2, r2, #17
    13d2:	430a      	orrs	r2, r1
    13d4:	641a      	str	r2, [r3, #64]	; 0x40
    13d6:	4b19      	ldr	r3, [pc, #100]	; (143c <PORTA_IRQHandler+0x80>)
    13d8:	2280      	movs	r2, #128	; 0x80
    13da:	6819      	ldr	r1, [r3, #0]
    13dc:	0252      	lsls	r2, r2, #9
    13de:	430a      	orrs	r2, r1
    13e0:	4c17      	ldr	r4, [pc, #92]	; (1440 <PORTA_IRQHandler+0x84>)
    13e2:	601a      	str	r2, [r3, #0]
    13e4:	68a3      	ldr	r3, [r4, #8]
    13e6:	2b00      	cmp	r3, #0
    13e8:	d101      	bne.n	13ee <PORTA_IRQHandler+0x32>
    13ea:	60a5      	str	r5, [r4, #8]
    13ec:	e01a      	b.n	1424 <PORTA_IRQHandler+0x68>
    13ee:	2b02      	cmp	r3, #2
    13f0:	d10c      	bne.n	140c <PORTA_IRQHandler+0x50>
    13f2:	2306      	movs	r3, #6
    13f4:	60a3      	str	r3, [r4, #8]
    13f6:	4b13      	ldr	r3, [pc, #76]	; (1444 <PORTA_IRQHandler+0x88>)
    13f8:	681a      	ldr	r2, [r3, #0]
    13fa:	43aa      	bics	r2, r5
    13fc:	601a      	str	r2, [r3, #0]
    13fe:	f7ff fee7 	bl	11d0 <SpiReadHeader>
    1402:	2308      	movs	r3, #8
    1404:	60a3      	str	r3, [r4, #8]
    1406:	f7ff ff6b 	bl	12e0 <SSIContReadOperation>
    140a:	e00b      	b.n	1424 <PORTA_IRQHandler+0x68>
    140c:	2b03      	cmp	r3, #3
    140e:	d109      	bne.n	1424 <PORTA_IRQHandler+0x68>
    1410:	88a1      	ldrh	r1, [r4, #4]
    1412:	68e0      	ldr	r0, [r4, #12]
    1414:	f7ff fdf6 	bl	1004 <SpiWriteDataSynchronous>
    1418:	2302      	movs	r3, #2
    141a:	60a3      	str	r3, [r4, #8]
    141c:	4b09      	ldr	r3, [pc, #36]	; (1444 <PORTA_IRQHandler+0x88>)
    141e:	681a      	ldr	r2, [r3, #0]
    1420:	4315      	orrs	r5, r2
    1422:	601d      	str	r5, [r3, #0]
    1424:	4808      	ldr	r0, [pc, #32]	; (1448 <PORTA_IRQHandler+0x8c>)
    1426:	f001 f9c5 	bl	27b4 <puts>
    142a:	2300      	movs	r3, #0
    142c:	7033      	strb	r3, [r6, #0]
    142e:	bd70      	pop	{r4, r5, r6, pc}
    1430:	1ffff1e1 	svcne	0x00fff1e1
    1434:	00008a46 	andeq	r8, r0, r6, asr #20
    1438:	40049000 	andmi	r9, r4, r0
    143c:	400490a0 	andmi	r9, r4, r0, lsr #1
    1440:	1ffff2e8 	svcne	0x00fff2e8
    1444:	f80ff0c0 			; <UNDEFINED> instruction: 0xf80ff0c0
    1448:	00008a61 	andeq	r8, r0, r1, ror #20

0000144c <board_init>:
    144c:	4770      	bx	lr
	...

00001450 <NVIC_SetVector>:
    1450:	4a0d      	ldr	r2, [pc, #52]	; (1488 <NVIC_SetVector+0x38>)
    1452:	b5f0      	push	{r4, r5, r6, r7, lr}
    1454:	6893      	ldr	r3, [r2, #8]
    1456:	6895      	ldr	r5, [r2, #8]
    1458:	1c1f      	adds	r7, r3, #0
    145a:	2d00      	cmp	r5, #0
    145c:	d10f      	bne.n	147e <NVIC_SetVector+0x2e>
    145e:	1c1f      	adds	r7, r3, #0
    1460:	4d0a      	ldr	r5, [pc, #40]	; (148c <NVIC_SetVector+0x3c>)
    1462:	37c0      	adds	r7, #192	; 0xc0
    1464:	1c1c      	adds	r4, r3, #0
    1466:	cc40      	ldmia	r4!, {r6}
    1468:	1c2a      	adds	r2, r5, #0
    146a:	c240      	stmia	r2!, {r6}
    146c:	685b      	ldr	r3, [r3, #4]
    146e:	606b      	str	r3, [r5, #4]
    1470:	1d23      	adds	r3, r4, #4
    1472:	1d15      	adds	r5, r2, #4
    1474:	42bb      	cmp	r3, r7
    1476:	d1f5      	bne.n	1464 <NVIC_SetVector+0x14>
    1478:	4f04      	ldr	r7, [pc, #16]	; (148c <NVIC_SetVector+0x3c>)
    147a:	4c03      	ldr	r4, [pc, #12]	; (1488 <NVIC_SetVector+0x38>)
    147c:	60a7      	str	r7, [r4, #8]
    147e:	3010      	adds	r0, #16
    1480:	0080      	lsls	r0, r0, #2
    1482:	51c1      	str	r1, [r0, r7]
    1484:	bdf0      	pop	{r4, r5, r6, r7, pc}
    1486:	46c0      	nop			; (mov r8, r8)
    1488:	e000ed00 	and	lr, r0, r0, lsl #26
    148c:	1ffff000 	svcne	0x00fff000

00001490 <SystemInit>:
    1490:	4b22      	ldr	r3, [pc, #136]	; (151c <SystemInit+0x8c>)
    1492:	2188      	movs	r1, #136	; 0x88
    1494:	2200      	movs	r2, #0
    1496:	0148      	lsls	r0, r1, #5
    1498:	4921      	ldr	r1, [pc, #132]	; (1520 <SystemInit+0x90>)
    149a:	b510      	push	{r4, lr}
    149c:	501a      	str	r2, [r3, r0]
    149e:	585c      	ldr	r4, [r3, r1]
    14a0:	2080      	movs	r0, #128	; 0x80
    14a2:	0080      	lsls	r0, r0, #2
    14a4:	4320      	orrs	r0, r4
    14a6:	5058      	str	r0, [r3, r1]
    14a8:	4c1e      	ldr	r4, [pc, #120]	; (1524 <SystemInit+0x94>)
    14aa:	491f      	ldr	r1, [pc, #124]	; (1528 <SystemInit+0x98>)
    14ac:	505c      	str	r4, [r3, r1]
    14ae:	4b1f      	ldr	r3, [pc, #124]	; (152c <SystemInit+0x9c>)
    14b0:	4c1f      	ldr	r4, [pc, #124]	; (1530 <SystemInit+0xa0>)
    14b2:	6c98      	ldr	r0, [r3, #72]	; 0x48
    14b4:	4020      	ands	r0, r4
    14b6:	6498      	str	r0, [r3, #72]	; 0x48
    14b8:	6cd9      	ldr	r1, [r3, #76]	; 0x4c
    14ba:	2089      	movs	r0, #137	; 0x89
    14bc:	400c      	ands	r4, r1
    14be:	64dc      	str	r4, [r3, #76]	; 0x4c
    14c0:	4b1c      	ldr	r3, [pc, #112]	; (1534 <SystemInit+0xa4>)
    14c2:	4c1d      	ldr	r4, [pc, #116]	; (1538 <SystemInit+0xa8>)
    14c4:	7018      	strb	r0, [r3, #0]
    14c6:	2124      	movs	r1, #36	; 0x24
    14c8:	209a      	movs	r0, #154	; 0x9a
    14ca:	7061      	strb	r1, [r4, #1]
    14cc:	7020      	strb	r0, [r4, #0]
    14ce:	78e3      	ldrb	r3, [r4, #3]
    14d0:	211f      	movs	r1, #31
    14d2:	400b      	ands	r3, r1
    14d4:	2001      	movs	r0, #1
    14d6:	70e3      	strb	r3, [r4, #3]
    14d8:	7120      	strb	r0, [r4, #4]
    14da:	7162      	strb	r2, [r4, #5]
    14dc:	2210      	movs	r2, #16
    14de:	79a3      	ldrb	r3, [r4, #6]
    14e0:	421a      	tst	r2, r3
    14e2:	d1fc      	bne.n	14de <SystemInit+0x4e>
    14e4:	4c14      	ldr	r4, [pc, #80]	; (1538 <SystemInit+0xa8>)
    14e6:	210c      	movs	r1, #12
    14e8:	79a2      	ldrb	r2, [r4, #6]
    14ea:	4813      	ldr	r0, [pc, #76]	; (1538 <SystemInit+0xa8>)
    14ec:	400a      	ands	r2, r1
    14ee:	2a08      	cmp	r2, #8
    14f0:	d1fa      	bne.n	14e8 <SystemInit+0x58>
    14f2:	2340      	movs	r3, #64	; 0x40
    14f4:	7143      	strb	r3, [r0, #5]
    14f6:	240c      	movs	r4, #12
    14f8:	7981      	ldrb	r1, [r0, #6]
    14fa:	4021      	ands	r1, r4
    14fc:	2908      	cmp	r1, #8
    14fe:	d1fb      	bne.n	14f8 <SystemInit+0x68>
    1500:	480d      	ldr	r0, [pc, #52]	; (1538 <SystemInit+0xa8>)
    1502:	2440      	movs	r4, #64	; 0x40
    1504:	7983      	ldrb	r3, [r0, #6]
    1506:	4a0c      	ldr	r2, [pc, #48]	; (1538 <SystemInit+0xa8>)
    1508:	421c      	tst	r4, r3
    150a:	d0fb      	beq.n	1504 <SystemInit+0x74>
    150c:	211a      	movs	r1, #26
    150e:	7011      	strb	r1, [r2, #0]
    1510:	200c      	movs	r0, #12
    1512:	7994      	ldrb	r4, [r2, #6]
    1514:	4004      	ands	r4, r0
    1516:	2c0c      	cmp	r4, #12
    1518:	d1fb      	bne.n	1512 <SystemInit+0x82>
    151a:	bd10      	pop	{r4, pc}
    151c:	40047000 	andmi	r7, r4, r0
    1520:	00001038 	andeq	r1, r0, r8, lsr r0
    1524:	10010000 	andne	r0, r1, r0
    1528:	00001044 	andeq	r1, r0, r4, asr #32
    152c:	40049000 	andmi	r9, r4, r0
    1530:	fefff8ff 	mrc2	8, 7, pc, cr15, cr15, {7}
    1534:	40065000 	andmi	r5, r6, r0
    1538:	40064000 	andmi	r4, r6, r0

0000153c <NMI_Handler>:
    153c:	b500      	push	{lr}
    153e:	b087      	sub	sp, #28
    1540:	4668      	mov	r0, sp
    1542:	2110      	movs	r1, #16
    1544:	f000 fb60 	bl	1c08 <gpio_init_in>
    1548:	b007      	add	sp, #28
    154a:	bd00      	pop	{pc}
    154c:	e7fe      	b.n	154c <NMI_Handler+0x10>

0000154e <HardFault_Handler>:
    154e:	e7fe      	b.n	154e <HardFault_Handler>

00001550 <SVC_Handler>:
    1550:	e7fe      	b.n	1550 <SVC_Handler>

00001552 <PendSV_Handler>:
    1552:	e7fe      	b.n	1552 <PendSV_Handler>

00001554 <SysTick_Handler>:
    1554:	e7fe      	b.n	1554 <SysTick_Handler>

00001556 <ADC0_IRQHandler>:
    1556:	e7fe      	b.n	1556 <ADC0_IRQHandler>

00001558 <mbed_die>:
    1558:	b500      	push	{lr}
    155a:	b087      	sub	sp, #28
    155c:	b672      	cpsid	i
    155e:	4908      	ldr	r1, [pc, #32]	; (1580 <mbed_die+0x28>)
    1560:	4668      	mov	r0, sp
    1562:	f000 fb7b 	bl	1c5c <gpio_init_out>
    1566:	9b03      	ldr	r3, [sp, #12]
    1568:	9a01      	ldr	r2, [sp, #4]
    156a:	2096      	movs	r0, #150	; 0x96
    156c:	601a      	str	r2, [r3, #0]
    156e:	f000 fbe3 	bl	1d38 <wait_ms>
    1572:	9804      	ldr	r0, [sp, #16]
    1574:	9901      	ldr	r1, [sp, #4]
    1576:	6001      	str	r1, [r0, #0]
    1578:	2096      	movs	r0, #150	; 0x96
    157a:	f000 fbdd 	bl	1d38 <wait_ms>
    157e:	e7f2      	b.n	1566 <mbed_die+0xe>
    1580:	00001048 	andeq	r1, r0, r8, asr #32

00001584 <_ZL11init_serialv>:
    1584:	b508      	push	{r3, lr}
    1586:	4b05      	ldr	r3, [pc, #20]	; (159c <_ZL11init_serialv+0x18>)
    1588:	6818      	ldr	r0, [r3, #0]
    158a:	2800      	cmp	r0, #0
    158c:	d104      	bne.n	1598 <_ZL11init_serialv+0x14>
    158e:	4804      	ldr	r0, [pc, #16]	; (15a0 <_ZL11init_serialv+0x1c>)
    1590:	2108      	movs	r1, #8
    1592:	2204      	movs	r2, #4
    1594:	f000 f9e6 	bl	1964 <serial_init>
    1598:	bd08      	pop	{r3, pc}
    159a:	46c0      	nop			; (mov r8, r8)
    159c:	1ffff3fc 	svcne	0x00fff3fc
    15a0:	1ffff41c 	svcne	0x00fff41c

000015a4 <_close>:
    15a4:	b508      	push	{r3, lr}
    15a6:	2300      	movs	r3, #0
    15a8:	2802      	cmp	r0, #2
    15aa:	dd0a      	ble.n	15c2 <_close+0x1e>
    15ac:	3803      	subs	r0, #3
    15ae:	4a07      	ldr	r2, [pc, #28]	; (15cc <_close+0x28>)
    15b0:	0081      	lsls	r1, r0, #2
    15b2:	5888      	ldr	r0, [r1, r2]
    15b4:	508b      	str	r3, [r1, r2]
    15b6:	2800      	cmp	r0, #0
    15b8:	d005      	beq.n	15c6 <_close+0x22>
    15ba:	6803      	ldr	r3, [r0, #0]
    15bc:	685a      	ldr	r2, [r3, #4]
    15be:	4790      	blx	r2
    15c0:	1c03      	adds	r3, r0, #0
    15c2:	1c18      	adds	r0, r3, #0
    15c4:	bd08      	pop	{r3, pc}
    15c6:	2001      	movs	r0, #1
    15c8:	4243      	negs	r3, r0
    15ca:	e7fa      	b.n	15c2 <_close+0x1e>
    15cc:	1ffff2fc 	svcne	0x00fff2fc

000015d0 <_write>:
    15d0:	b5f0      	push	{r4, r5, r6, r7, lr}
    15d2:	4647      	mov	r7, r8
    15d4:	b480      	push	{r7}
    15d6:	1c0c      	adds	r4, r1, #0
    15d8:	4690      	mov	r8, r2
    15da:	2802      	cmp	r0, #2
    15dc:	dc2c      	bgt.n	1638 <_write+0x68>
    15de:	4e20      	ldr	r6, [pc, #128]	; (1660 <_write+0x90>)
    15e0:	6837      	ldr	r7, [r6, #0]
    15e2:	2f00      	cmp	r7, #0
    15e4:	d033      	beq.n	164e <_write+0x7e>
    15e6:	4640      	mov	r0, r8
    15e8:	2800      	cmp	r0, #0
    15ea:	d021      	beq.n	1630 <_write+0x60>
    15ec:	43e1      	mvns	r1, r4
    15ee:	1827      	adds	r7, r4, r0
    15f0:	4d1c      	ldr	r5, [pc, #112]	; (1664 <_write+0x94>)
    15f2:	2201      	movs	r2, #1
    15f4:	19c8      	adds	r0, r1, r7
    15f6:	1c16      	adds	r6, r2, #0
    15f8:	7821      	ldrb	r1, [r4, #0]
    15fa:	4006      	ands	r6, r0
    15fc:	3401      	adds	r4, #1
    15fe:	1c28      	adds	r0, r5, #0
    1600:	f000 fac2 	bl	1b88 <serial_putc>
    1604:	42bc      	cmp	r4, r7
    1606:	d013      	beq.n	1630 <_write+0x60>
    1608:	2e00      	cmp	r6, #0
    160a:	d006      	beq.n	161a <_write+0x4a>
    160c:	7821      	ldrb	r1, [r4, #0]
    160e:	1c28      	adds	r0, r5, #0
    1610:	3401      	adds	r4, #1
    1612:	f000 fab9 	bl	1b88 <serial_putc>
    1616:	42bc      	cmp	r4, r7
    1618:	d00a      	beq.n	1630 <_write+0x60>
    161a:	7821      	ldrb	r1, [r4, #0]
    161c:	1c28      	adds	r0, r5, #0
    161e:	f000 fab3 	bl	1b88 <serial_putc>
    1622:	7861      	ldrb	r1, [r4, #1]
    1624:	1c28      	adds	r0, r5, #0
    1626:	3402      	adds	r4, #2
    1628:	f000 faae 	bl	1b88 <serial_putc>
    162c:	42bc      	cmp	r4, r7
    162e:	d1f4      	bne.n	161a <_write+0x4a>
    1630:	4640      	mov	r0, r8
    1632:	bc04      	pop	{r2}
    1634:	4690      	mov	r8, r2
    1636:	bdf0      	pop	{r4, r5, r6, r7, pc}
    1638:	3803      	subs	r0, #3
    163a:	4b0b      	ldr	r3, [pc, #44]	; (1668 <_write+0x98>)
    163c:	0080      	lsls	r0, r0, #2
    163e:	58c0      	ldr	r0, [r0, r3]
    1640:	2800      	cmp	r0, #0
    1642:	d00a      	beq.n	165a <_write+0x8a>
    1644:	6801      	ldr	r1, [r0, #0]
    1646:	680d      	ldr	r5, [r1, #0]
    1648:	1c21      	adds	r1, r4, #0
    164a:	47a8      	blx	r5
    164c:	e7f1      	b.n	1632 <_write+0x62>
    164e:	f7ff ff99 	bl	1584 <_ZL11init_serialv>
    1652:	4640      	mov	r0, r8
    1654:	2800      	cmp	r0, #0
    1656:	d1c9      	bne.n	15ec <_write+0x1c>
    1658:	e7ea      	b.n	1630 <_write+0x60>
    165a:	2201      	movs	r2, #1
    165c:	4250      	negs	r0, r2
    165e:	e7e8      	b.n	1632 <_write+0x62>
    1660:	1ffff3fc 	svcne	0x00fff3fc
    1664:	1ffff41c 	svcne	0x00fff41c
    1668:	1ffff2fc 	svcne	0x00fff2fc

0000166c <_read>:
    166c:	b510      	push	{r4, lr}
    166e:	1c0c      	adds	r4, r1, #0
    1670:	2802      	cmp	r0, #2
    1672:	dd0a      	ble.n	168a <_read+0x1e>
    1674:	3803      	subs	r0, #3
    1676:	4b09      	ldr	r3, [pc, #36]	; (169c <_read+0x30>)
    1678:	0080      	lsls	r0, r0, #2
    167a:	58c0      	ldr	r0, [r0, r3]
    167c:	2800      	cmp	r0, #0
    167e:	d00a      	beq.n	1696 <_read+0x2a>
    1680:	6801      	ldr	r1, [r0, #0]
    1682:	688b      	ldr	r3, [r1, #8]
    1684:	1c21      	adds	r1, r4, #0
    1686:	4798      	blx	r3
    1688:	bd10      	pop	{r4, pc}
    168a:	4805      	ldr	r0, [pc, #20]	; (16a0 <_read+0x34>)
    168c:	f000 fa6a 	bl	1b64 <serial_getc>
    1690:	7020      	strb	r0, [r4, #0]
    1692:	2001      	movs	r0, #1
    1694:	e7f8      	b.n	1688 <_read+0x1c>
    1696:	2201      	movs	r2, #1
    1698:	4250      	negs	r0, r2
    169a:	e7f5      	b.n	1688 <_read+0x1c>
    169c:	1ffff2fc 	svcne	0x00fff2fc
    16a0:	1ffff41c 	svcne	0x00fff41c

000016a4 <_isatty>:
    16a4:	b508      	push	{r3, lr}
    16a6:	1c03      	adds	r3, r0, #0
    16a8:	2001      	movs	r0, #1
    16aa:	2b02      	cmp	r3, #2
    16ac:	dd08      	ble.n	16c0 <_isatty+0x1c>
    16ae:	3b03      	subs	r3, #3
    16b0:	4a05      	ldr	r2, [pc, #20]	; (16c8 <_isatty+0x24>)
    16b2:	0098      	lsls	r0, r3, #2
    16b4:	5880      	ldr	r0, [r0, r2]
    16b6:	2800      	cmp	r0, #0
    16b8:	d003      	beq.n	16c2 <_isatty+0x1e>
    16ba:	6801      	ldr	r1, [r0, #0]
    16bc:	68cb      	ldr	r3, [r1, #12]
    16be:	4798      	blx	r3
    16c0:	bd08      	pop	{r3, pc}
    16c2:	2001      	movs	r0, #1
    16c4:	4240      	negs	r0, r0
    16c6:	e7fb      	b.n	16c0 <_isatty+0x1c>
    16c8:	1ffff2fc 	svcne	0x00fff2fc

000016cc <_lseek>:
    16cc:	b508      	push	{r3, lr}
    16ce:	1c03      	adds	r3, r0, #0
    16d0:	2000      	movs	r0, #0
    16d2:	2b02      	cmp	r3, #2
    16d4:	dd08      	ble.n	16e8 <_lseek+0x1c>
    16d6:	3b03      	subs	r3, #3
    16d8:	4805      	ldr	r0, [pc, #20]	; (16f0 <_lseek+0x24>)
    16da:	009b      	lsls	r3, r3, #2
    16dc:	5818      	ldr	r0, [r3, r0]
    16de:	2800      	cmp	r0, #0
    16e0:	d003      	beq.n	16ea <_lseek+0x1e>
    16e2:	6803      	ldr	r3, [r0, #0]
    16e4:	691b      	ldr	r3, [r3, #16]
    16e6:	4798      	blx	r3
    16e8:	bd08      	pop	{r3, pc}
    16ea:	2101      	movs	r1, #1
    16ec:	4248      	negs	r0, r1
    16ee:	e7fb      	b.n	16e8 <_lseek+0x1c>
    16f0:	1ffff2fc 	svcne	0x00fff2fc

000016f4 <_fstat>:
    16f4:	b508      	push	{r3, lr}
    16f6:	2802      	cmp	r0, #2
    16f8:	d804      	bhi.n	1704 <_fstat+0x10>
    16fa:	2280      	movs	r2, #128	; 0x80
    16fc:	0193      	lsls	r3, r2, #6
    16fe:	604b      	str	r3, [r1, #4]
    1700:	2000      	movs	r0, #0
    1702:	bd08      	pop	{r3, pc}
    1704:	f000 fd46 	bl	2194 <__errno>
    1708:	2309      	movs	r3, #9
    170a:	6003      	str	r3, [r0, #0]
    170c:	2001      	movs	r0, #1
    170e:	4240      	negs	r0, r0
    1710:	e7f7      	b.n	1702 <_fstat+0xe>
    1712:	46c0      	nop			; (mov r8, r8)

00001714 <_sbrk>:
    1714:	4a07      	ldr	r2, [pc, #28]	; (1734 <_sbrk+0x20>)
    1716:	6813      	ldr	r3, [r2, #0]
    1718:	1818      	adds	r0, r3, r0
    171a:	f3ef 8108 	mrs	r1, MSP
    171e:	4288      	cmp	r0, r1
    1720:	d202      	bcs.n	1728 <_sbrk+0x14>
    1722:	6010      	str	r0, [r2, #0]
    1724:	1c18      	adds	r0, r3, #0
    1726:	4770      	bx	lr
    1728:	4b03      	ldr	r3, [pc, #12]	; (1738 <_sbrk+0x24>)
    172a:	220c      	movs	r2, #12
    172c:	2001      	movs	r0, #1
    172e:	601a      	str	r2, [r3, #0]
    1730:	4243      	negs	r3, r0
    1732:	e7f7      	b.n	1724 <_sbrk+0x10>
    1734:	1ffff0d0 	svcne	0x00fff0d0
    1738:	1ffff424 	svcne	0x00fff424

0000173c <mcgpllfll_frequency>:
    173c:	b510      	push	{r4, lr}
    173e:	4b0f      	ldr	r3, [pc, #60]	; (177c <mcgpllfll_frequency+0x40>)
    1740:	213f      	movs	r1, #63	; 0x3f
    1742:	781a      	ldrb	r2, [r3, #0]
    1744:	2000      	movs	r0, #0
    1746:	438a      	bics	r2, r1
    1748:	d111      	bne.n	176e <mcgpllfll_frequency+0x32>
    174a:	480d      	ldr	r0, [pc, #52]	; (1780 <mcgpllfll_frequency+0x44>)
    174c:	4a0d      	ldr	r2, [pc, #52]	; (1784 <mcgpllfll_frequency+0x48>)
    174e:	490e      	ldr	r1, [pc, #56]	; (1788 <mcgpllfll_frequency+0x4c>)
    1750:	5814      	ldr	r4, [r2, r0]
    1752:	795b      	ldrb	r3, [r3, #5]
    1754:	0f20      	lsrs	r0, r4, #28
    1756:	680c      	ldr	r4, [r1, #0]
    1758:	3001      	adds	r0, #1
    175a:	4360      	muls	r0, r4
    175c:	0659      	lsls	r1, r3, #25
    175e:	d507      	bpl.n	1770 <mcgpllfll_frequency+0x34>
    1760:	4b0a      	ldr	r3, [pc, #40]	; (178c <mcgpllfll_frequency+0x50>)
    1762:	2180      	movs	r1, #128	; 0x80
    1764:	58d4      	ldr	r4, [r2, r3]
    1766:	0249      	lsls	r1, r1, #9
    1768:	4321      	orrs	r1, r4
    176a:	50d1      	str	r1, [r2, r3]
    176c:	0840      	lsrs	r0, r0, #1
    176e:	bd10      	pop	{r4, pc}
    1770:	4b06      	ldr	r3, [pc, #24]	; (178c <mcgpllfll_frequency+0x50>)
    1772:	4907      	ldr	r1, [pc, #28]	; (1790 <mcgpllfll_frequency+0x54>)
    1774:	58d4      	ldr	r4, [r2, r3]
    1776:	4021      	ands	r1, r4
    1778:	50d1      	str	r1, [r2, r3]
    177a:	e7f8      	b.n	176e <mcgpllfll_frequency+0x32>
    177c:	40064000 	andmi	r4, r6, r0
    1780:	00001044 	andeq	r1, r0, r4, asr #32
    1784:	40047000 	andmi	r7, r4, r0
    1788:	1ffff0cc 	svcne	0x00fff0cc
    178c:	00001004 	andeq	r1, r0, r4
    1790:	fffeffff 			; <UNDEFINED> instruction: 0xfffeffff

00001794 <serial_baud>:
    1794:	b5f8      	push	{r3, r4, r5, r6, r7, lr}
    1796:	6803      	ldr	r3, [r0, #0]
    1798:	1c0f      	adds	r7, r1, #0
    179a:	78de      	ldrb	r6, [r3, #3]
    179c:	78d9      	ldrb	r1, [r3, #3]
    179e:	220c      	movs	r2, #12
    17a0:	4391      	bics	r1, r2
    17a2:	70d9      	strb	r1, [r3, #3]
    17a4:	1c04      	adds	r4, r0, #0
    17a6:	6825      	ldr	r5, [r4, #0]
    17a8:	4b44      	ldr	r3, [pc, #272]	; (18bc <serial_baud+0x128>)
    17aa:	4016      	ands	r6, r2
    17ac:	429d      	cmp	r5, r3
    17ae:	d01d      	beq.n	17ec <serial_baud+0x58>
    17b0:	4943      	ldr	r1, [pc, #268]	; (18c0 <serial_baud+0x12c>)
    17b2:	4a44      	ldr	r2, [pc, #272]	; (18c4 <serial_baud+0x130>)
    17b4:	5850      	ldr	r0, [r2, r1]
    17b6:	4a44      	ldr	r2, [pc, #272]	; (18c8 <serial_baud+0x134>)
    17b8:	0343      	lsls	r3, r0, #13
    17ba:	0f59      	lsrs	r1, r3, #29
    17bc:	3101      	adds	r1, #1
    17be:	6810      	ldr	r0, [r2, #0]
    17c0:	f004 fffc 	bl	67bc <__aeabi_uidiv>
    17c4:	0139      	lsls	r1, r7, #4
    17c6:	f004 fff9 	bl	67bc <__aeabi_uidiv>
    17ca:	782f      	ldrb	r7, [r5, #0]
    17cc:	211f      	movs	r1, #31
    17ce:	438f      	bics	r7, r1
    17d0:	0a02      	lsrs	r2, r0, #8
    17d2:	400a      	ands	r2, r1
    17d4:	1c3b      	adds	r3, r7, #0
    17d6:	4313      	orrs	r3, r2
    17d8:	702b      	strb	r3, [r5, #0]
    17da:	6825      	ldr	r5, [r4, #0]
    17dc:	b2c0      	uxtb	r0, r0
    17de:	786a      	ldrb	r2, [r5, #1]
    17e0:	7068      	strb	r0, [r5, #1]
    17e2:	6824      	ldr	r4, [r4, #0]
    17e4:	78e7      	ldrb	r7, [r4, #3]
    17e6:	433e      	orrs	r6, r7
    17e8:	70e6      	strb	r6, [r4, #3]
    17ea:	bdf8      	pop	{r3, r4, r5, r6, r7, pc}
    17ec:	f7ff ffa6 	bl	173c <mcgpllfll_frequency>
    17f0:	2800      	cmp	r0, #0
    17f2:	d136      	bne.n	1862 <serial_baud+0xce>
    17f4:	4d32      	ldr	r5, [pc, #200]	; (18c0 <serial_baud+0x12c>)
    17f6:	4933      	ldr	r1, [pc, #204]	; (18c4 <serial_baud+0x130>)
    17f8:	4b33      	ldr	r3, [pc, #204]	; (18c8 <serial_baud+0x134>)
    17fa:	5948      	ldr	r0, [r1, r5]
    17fc:	4d33      	ldr	r5, [pc, #204]	; (18cc <serial_baud+0x138>)
    17fe:	681a      	ldr	r2, [r3, #0]
    1800:	0f00      	lsrs	r0, r0, #28
    1802:	7829      	ldrb	r1, [r5, #0]
    1804:	3001      	adds	r0, #1
    1806:	233f      	movs	r3, #63	; 0x3f
    1808:	4350      	muls	r0, r2
    180a:	4399      	bics	r1, r3
    180c:	2980      	cmp	r1, #128	; 0x80
    180e:	d026      	beq.n	185e <serial_baud+0xca>
    1810:	782a      	ldrb	r2, [r5, #0]
    1812:	439a      	bics	r2, r3
    1814:	d129      	bne.n	186a <serial_baud+0xd6>
    1816:	796b      	ldrb	r3, [r5, #5]
    1818:	0659      	lsls	r1, r3, #25
    181a:	d429      	bmi.n	1870 <serial_baud+0xdc>
    181c:	79ab      	ldrb	r3, [r5, #6]
    181e:	06d9      	lsls	r1, r3, #27
    1820:	d423      	bmi.n	186a <serial_baud+0xd6>
    1822:	782a      	ldrb	r2, [r5, #0]
    1824:	786d      	ldrb	r5, [r5, #1]
    1826:	0691      	lsls	r1, r2, #26
    1828:	0f4b      	lsrs	r3, r1, #29
    182a:	2201      	movs	r2, #1
    182c:	409a      	lsls	r2, r3
    182e:	21ff      	movs	r1, #255	; 0xff
    1830:	2330      	movs	r3, #48	; 0x30
    1832:	400a      	ands	r2, r1
    1834:	422b      	tst	r3, r5
    1836:	d000      	beq.n	183a <serial_baud+0xa6>
    1838:	0152      	lsls	r2, r2, #5
    183a:	4924      	ldr	r1, [pc, #144]	; (18cc <serial_baud+0x138>)
    183c:	231f      	movs	r3, #31
    183e:	78cd      	ldrb	r5, [r1, #3]
    1840:	439d      	bics	r5, r3
    1842:	2d60      	cmp	r5, #96	; 0x60
    1844:	d02b      	beq.n	189e <serial_baud+0x10a>
    1846:	d81f      	bhi.n	1888 <serial_baud+0xf4>
    1848:	2d20      	cmp	r5, #32
    184a:	d02e      	beq.n	18aa <serial_baud+0x116>
    184c:	2d40      	cmp	r5, #64	; 0x40
    184e:	d029      	beq.n	18a4 <serial_baud+0x110>
    1850:	2d00      	cmp	r5, #0
    1852:	d11f      	bne.n	1894 <serial_baud+0x100>
    1854:	21a0      	movs	r1, #160	; 0xa0
    1856:	0089      	lsls	r1, r1, #2
    1858:	4350      	muls	r0, r2
    185a:	f004 ffaf 	bl	67bc <__aeabi_uidiv>
    185e:	6825      	ldr	r5, [r4, #0]
    1860:	e7b0      	b.n	17c4 <serial_baud+0x30>
    1862:	f7ff ff6b 	bl	173c <mcgpllfll_frequency>
    1866:	6825      	ldr	r5, [r4, #0]
    1868:	e7ac      	b.n	17c4 <serial_baud+0x30>
    186a:	2000      	movs	r0, #0
    186c:	6825      	ldr	r5, [r4, #0]
    186e:	e7a9      	b.n	17c4 <serial_baud+0x30>
    1870:	792a      	ldrb	r2, [r5, #4]
    1872:	211f      	movs	r1, #31
    1874:	796d      	ldrb	r5, [r5, #5]
    1876:	400a      	ands	r2, r1
    1878:	3201      	adds	r2, #1
    187a:	4029      	ands	r1, r5
    187c:	4350      	muls	r0, r2
    187e:	3118      	adds	r1, #24
    1880:	f004 ff9c 	bl	67bc <__aeabi_uidiv>
    1884:	6825      	ldr	r5, [r4, #0]
    1886:	e79d      	b.n	17c4 <serial_baud+0x30>
    1888:	2da0      	cmp	r5, #160	; 0xa0
    188a:	d013      	beq.n	18b4 <serial_baud+0x120>
    188c:	2dc0      	cmp	r5, #192	; 0xc0
    188e:	d00f      	beq.n	18b0 <serial_baud+0x11c>
    1890:	2d80      	cmp	r5, #128	; 0x80
    1892:	d001      	beq.n	1898 <serial_baud+0x104>
    1894:	490e      	ldr	r1, [pc, #56]	; (18d0 <serial_baud+0x13c>)
    1896:	e7df      	b.n	1858 <serial_baud+0xc4>
    1898:	21b7      	movs	r1, #183	; 0xb7
    189a:	0089      	lsls	r1, r1, #2
    189c:	e7dc      	b.n	1858 <serial_baud+0xc4>
    189e:	23a0      	movs	r3, #160	; 0xa0
    18a0:	0119      	lsls	r1, r3, #4
    18a2:	e7d9      	b.n	1858 <serial_baud+0xc4>
    18a4:	25f0      	movs	r5, #240	; 0xf0
    18a6:	00e9      	lsls	r1, r5, #3
    18a8:	e7d6      	b.n	1858 <serial_baud+0xc4>
    18aa:	23a0      	movs	r3, #160	; 0xa0
    18ac:	00d9      	lsls	r1, r3, #3
    18ae:	e7d3      	b.n	1858 <serial_baud+0xc4>
    18b0:	4908      	ldr	r1, [pc, #32]	; (18d4 <serial_baud+0x140>)
    18b2:	e7d1      	b.n	1858 <serial_baud+0xc4>
    18b4:	25b7      	movs	r5, #183	; 0xb7
    18b6:	00e9      	lsls	r1, r5, #3
    18b8:	e7ce      	b.n	1858 <serial_baud+0xc4>
    18ba:	46c0      	nop			; (mov r8, r8)
    18bc:	4006a000 	andmi	sl, r6, r0
    18c0:	00001044 	andeq	r1, r0, r4, asr #32
    18c4:	40047000 	andmi	r7, r4, r0
    18c8:	1ffff0cc 	svcne	0x00fff0cc
    18cc:	40064000 	andmi	r4, r6, r0
    18d0:	00000b71 	andeq	r0, r0, r1, ror fp
    18d4:	00000895 	muleq	r0, r5, r8

000018d8 <serial_format>:
    18d8:	b5f0      	push	{r4, r5, r6, r7, lr}
    18da:	4647      	mov	r7, r8
    18dc:	b480      	push	{r7}
    18de:	1c04      	adds	r4, r0, #0
    18e0:	6800      	ldr	r0, [r0, #0]
    18e2:	1c1f      	adds	r7, r3, #0
    18e4:	78c6      	ldrb	r6, [r0, #3]
    18e6:	78c3      	ldrb	r3, [r0, #3]
    18e8:	1c15      	adds	r5, r2, #0
    18ea:	220c      	movs	r2, #12
    18ec:	4393      	bics	r3, r2
    18ee:	4016      	ands	r6, r2
    18f0:	70c3      	strb	r3, [r0, #3]
    18f2:	2908      	cmp	r1, #8
    18f4:	d002      	beq.n	18fc <serial_format+0x24>
    18f6:	4818      	ldr	r0, [pc, #96]	; (1958 <serial_format+0x80>)
    18f8:	f000 f95a 	bl	1bb0 <error>
    18fc:	2d01      	cmp	r5, #1
    18fe:	d024      	beq.n	194a <serial_format+0x72>
    1900:	2d00      	cmp	r5, #0
    1902:	d11a      	bne.n	193a <serial_format+0x62>
    1904:	2500      	movs	r5, #0
    1906:	46a8      	mov	r8, r5
    1908:	3f01      	subs	r7, #1
    190a:	2f01      	cmp	r7, #1
    190c:	d902      	bls.n	1914 <serial_format+0x3c>
    190e:	4813      	ldr	r0, [pc, #76]	; (195c <serial_format+0x84>)
    1910:	f000 f94e 	bl	1bb0 <error>
    1914:	6823      	ldr	r3, [r4, #0]
    1916:	4642      	mov	r2, r8
    1918:	709a      	strb	r2, [r3, #2]
    191a:	6825      	ldr	r5, [r4, #0]
    191c:	2120      	movs	r1, #32
    191e:	7828      	ldrb	r0, [r5, #0]
    1920:	017f      	lsls	r7, r7, #5
    1922:	4388      	bics	r0, r1
    1924:	7028      	strb	r0, [r5, #0]
    1926:	6822      	ldr	r2, [r4, #0]
    1928:	7813      	ldrb	r3, [r2, #0]
    192a:	431f      	orrs	r7, r3
    192c:	b2fd      	uxtb	r5, r7
    192e:	7015      	strb	r5, [r2, #0]
    1930:	6824      	ldr	r4, [r4, #0]
    1932:	78e0      	ldrb	r0, [r4, #3]
    1934:	4306      	orrs	r6, r0
    1936:	70e6      	strb	r6, [r4, #3]
    1938:	e004      	b.n	1944 <serial_format+0x6c>
    193a:	2d02      	cmp	r5, #2
    193c:	d008      	beq.n	1950 <serial_format+0x78>
    193e:	4808      	ldr	r0, [pc, #32]	; (1960 <serial_format+0x88>)
    1940:	f000 f936 	bl	1bb0 <error>
    1944:	bc04      	pop	{r2}
    1946:	4690      	mov	r8, r2
    1948:	bdf0      	pop	{r4, r5, r6, r7, pc}
    194a:	2003      	movs	r0, #3
    194c:	4680      	mov	r8, r0
    194e:	e7db      	b.n	1908 <serial_format+0x30>
    1950:	2102      	movs	r1, #2
    1952:	4688      	mov	r8, r1
    1954:	e7d8      	b.n	1908 <serial_format+0x30>
    1956:	46c0      	nop			; (mov r8, r8)
    1958:	00008a7c 	andeq	r8, r0, ip, ror sl
    195c:	00008ad8 	ldrdeq	r8, [r0], -r8	; <UNPREDICTABLE>
    1960:	00008ab8 			; <UNDEFINED> instruction: 0x00008ab8

00001964 <serial_init>:
    1964:	b5f8      	push	{r3, r4, r5, r6, r7, lr}
    1966:	464d      	mov	r5, r9
    1968:	4644      	mov	r4, r8
    196a:	465f      	mov	r7, fp
    196c:	4656      	mov	r6, sl
    196e:	b4f0      	push	{r4, r5, r6, r7}
    1970:	1c05      	adds	r5, r0, #0
    1972:	4871      	ldr	r0, [pc, #452]	; (1b38 <serial_init+0x1d4>)
    1974:	1c0f      	adds	r7, r1, #0
    1976:	4681      	mov	r9, r0
    1978:	1c08      	adds	r0, r1, #0
    197a:	4649      	mov	r1, r9
    197c:	1c16      	adds	r6, r2, #0
    197e:	f000 f9a5 	bl	1ccc <pinmap_peripheral>
    1982:	496e      	ldr	r1, [pc, #440]	; (1b3c <serial_init+0x1d8>)
    1984:	1c04      	adds	r4, r0, #0
    1986:	1c30      	adds	r0, r6, #0
    1988:	4688      	mov	r8, r1
    198a:	f000 f99f 	bl	1ccc <pinmap_peripheral>
    198e:	1c01      	adds	r1, r0, #0
    1990:	1c20      	adds	r0, r4, #0
    1992:	f000 f989 	bl	1ca8 <pinmap_merge>
    1996:	1c04      	adds	r4, r0, #0
    1998:	1c43      	adds	r3, r0, #1
    199a:	d100      	bne.n	199e <serial_init+0x3a>
    199c:	e0c2      	b.n	1b24 <serial_init+0x1c0>
    199e:	4b68      	ldr	r3, [pc, #416]	; (1b40 <serial_init+0x1dc>)
    19a0:	6028      	str	r0, [r5, #0]
    19a2:	4298      	cmp	r0, r3
    19a4:	d068      	beq.n	1a78 <serial_init+0x114>
    19a6:	4a67      	ldr	r2, [pc, #412]	; (1b44 <serial_init+0x1e0>)
    19a8:	4290      	cmp	r0, r2
    19aa:	d032      	beq.n	1a12 <serial_init+0xae>
    19ac:	4966      	ldr	r1, [pc, #408]	; (1b48 <serial_init+0x1e4>)
    19ae:	468b      	mov	fp, r1
    19b0:	4288      	cmp	r0, r1
    19b2:	d06f      	beq.n	1a94 <serial_init+0x130>
    19b4:	78c1      	ldrb	r1, [r0, #3]
    19b6:	200c      	movs	r0, #12
    19b8:	4381      	bics	r1, r0
    19ba:	70e1      	strb	r1, [r4, #3]
    19bc:	429c      	cmp	r4, r3
    19be:	d066      	beq.n	1a8e <serial_init+0x12a>
    19c0:	4294      	cmp	r4, r2
    19c2:	d031      	beq.n	1a28 <serial_init+0xc4>
    19c4:	455c      	cmp	r4, fp
    19c6:	d100      	bne.n	19ca <serial_init+0x66>
    19c8:	e07b      	b.n	1ac2 <serial_init+0x15e>
    19ca:	2296      	movs	r2, #150	; 0x96
    19cc:	0191      	lsls	r1, r2, #6
    19ce:	1c28      	adds	r0, r5, #0
    19d0:	f7ff fee0 	bl	1794 <serial_baud>
    19d4:	2200      	movs	r2, #0
    19d6:	2301      	movs	r3, #1
    19d8:	1c28      	adds	r0, r5, #0
    19da:	2108      	movs	r1, #8
    19dc:	f7ff ff7c 	bl	18d8 <serial_format>
    19e0:	1c38      	adds	r0, r7, #0
    19e2:	4649      	mov	r1, r9
    19e4:	f000 f944 	bl	1c70 <pinmap_pinout>
    19e8:	1c30      	adds	r0, r6, #0
    19ea:	4641      	mov	r1, r8
    19ec:	f000 f940 	bl	1c70 <pinmap_pinout>
    19f0:	1c38      	adds	r0, r7, #0
    19f2:	2102      	movs	r1, #2
    19f4:	f000 fa06 	bl	1e04 <pin_mode>
    19f8:	1c30      	adds	r0, r6, #0
    19fa:	2102      	movs	r1, #2
    19fc:	f000 fa02 	bl	1e04 <pin_mode>
    1a00:	682f      	ldr	r7, [r5, #0]
    1a02:	260c      	movs	r6, #12
    1a04:	78f9      	ldrb	r1, [r7, #3]
    1a06:	4850      	ldr	r0, [pc, #320]	; (1b48 <serial_init+0x1e4>)
    1a08:	430e      	orrs	r6, r1
    1a0a:	70fe      	strb	r6, [r7, #3]
    1a0c:	4284      	cmp	r4, r0
    1a0e:	d12d      	bne.n	1a6c <serial_init+0x108>
    1a10:	e079      	b.n	1b06 <serial_init+0x1a2>
    1a12:	4a4e      	ldr	r2, [pc, #312]	; (1b4c <serial_init+0x1e8>)
    1a14:	4b4e      	ldr	r3, [pc, #312]	; (1b50 <serial_init+0x1ec>)
    1a16:	2180      	movs	r1, #128	; 0x80
    1a18:	58d0      	ldr	r0, [r2, r3]
    1a1a:	0149      	lsls	r1, r1, #5
    1a1c:	4301      	orrs	r1, r0
    1a1e:	50d1      	str	r1, [r2, r3]
    1a20:	78e3      	ldrb	r3, [r4, #3]
    1a22:	220c      	movs	r2, #12
    1a24:	4393      	bics	r3, r2
    1a26:	70e3      	strb	r3, [r4, #3]
    1a28:	2402      	movs	r4, #2
    1a2a:	606c      	str	r4, [r5, #4]
    1a2c:	2196      	movs	r1, #150	; 0x96
    1a2e:	1c28      	adds	r0, r5, #0
    1a30:	0189      	lsls	r1, r1, #6
    1a32:	f7ff feaf 	bl	1794 <serial_baud>
    1a36:	2200      	movs	r2, #0
    1a38:	2301      	movs	r3, #1
    1a3a:	1c28      	adds	r0, r5, #0
    1a3c:	2108      	movs	r1, #8
    1a3e:	f7ff ff4b 	bl	18d8 <serial_format>
    1a42:	1c38      	adds	r0, r7, #0
    1a44:	4649      	mov	r1, r9
    1a46:	f000 f913 	bl	1c70 <pinmap_pinout>
    1a4a:	1c30      	adds	r0, r6, #0
    1a4c:	4641      	mov	r1, r8
    1a4e:	f000 f90f 	bl	1c70 <pinmap_pinout>
    1a52:	1c38      	adds	r0, r7, #0
    1a54:	2102      	movs	r1, #2
    1a56:	f000 f9d5 	bl	1e04 <pin_mode>
    1a5a:	1c30      	adds	r0, r6, #0
    1a5c:	2102      	movs	r1, #2
    1a5e:	f000 f9d1 	bl	1e04 <pin_mode>
    1a62:	682d      	ldr	r5, [r5, #0]
    1a64:	260c      	movs	r6, #12
    1a66:	78ef      	ldrb	r7, [r5, #3]
    1a68:	433e      	orrs	r6, r7
    1a6a:	70ee      	strb	r6, [r5, #3]
    1a6c:	bc3c      	pop	{r2, r3, r4, r5}
    1a6e:	4690      	mov	r8, r2
    1a70:	4699      	mov	r9, r3
    1a72:	46a2      	mov	sl, r4
    1a74:	46ab      	mov	fp, r5
    1a76:	bdf8      	pop	{r3, r4, r5, r6, r7, pc}
    1a78:	4a34      	ldr	r2, [pc, #208]	; (1b4c <serial_init+0x1e8>)
    1a7a:	4b35      	ldr	r3, [pc, #212]	; (1b50 <serial_init+0x1ec>)
    1a7c:	2180      	movs	r1, #128	; 0x80
    1a7e:	58d0      	ldr	r0, [r2, r3]
    1a80:	0109      	lsls	r1, r1, #4
    1a82:	4301      	orrs	r1, r0
    1a84:	50d1      	str	r1, [r2, r3]
    1a86:	78e3      	ldrb	r3, [r4, #3]
    1a88:	220c      	movs	r2, #12
    1a8a:	4393      	bics	r3, r2
    1a8c:	70e3      	strb	r3, [r4, #3]
    1a8e:	2401      	movs	r4, #1
    1a90:	606c      	str	r4, [r5, #4]
    1a92:	e7cb      	b.n	1a2c <serial_init+0xc8>
    1a94:	f7ff fe52 	bl	173c <mcgpllfll_frequency>
    1a98:	4c2c      	ldr	r4, [pc, #176]	; (1b4c <serial_init+0x1e8>)
    1a9a:	4b2e      	ldr	r3, [pc, #184]	; (1b54 <serial_init+0x1f0>)
    1a9c:	2800      	cmp	r0, #0
    1a9e:	d13b      	bne.n	1b18 <serial_init+0x1b4>
    1aa0:	58e2      	ldr	r2, [r4, r3]
    1aa2:	2180      	movs	r1, #128	; 0x80
    1aa4:	0508      	lsls	r0, r1, #20
    1aa6:	4310      	orrs	r0, r2
    1aa8:	50e0      	str	r0, [r4, r3]
    1aaa:	4c28      	ldr	r4, [pc, #160]	; (1b4c <serial_init+0x1e8>)
    1aac:	4b28      	ldr	r3, [pc, #160]	; (1b50 <serial_init+0x1ec>)
    1aae:	2180      	movs	r1, #128	; 0x80
    1ab0:	58e2      	ldr	r2, [r4, r3]
    1ab2:	00c8      	lsls	r0, r1, #3
    1ab4:	4310      	orrs	r0, r2
    1ab6:	50e0      	str	r0, [r4, r3]
    1ab8:	682c      	ldr	r4, [r5, #0]
    1aba:	220c      	movs	r2, #12
    1abc:	78e3      	ldrb	r3, [r4, #3]
    1abe:	4393      	bics	r3, r2
    1ac0:	70e3      	strb	r3, [r4, #3]
    1ac2:	2100      	movs	r1, #0
    1ac4:	2496      	movs	r4, #150	; 0x96
    1ac6:	6069      	str	r1, [r5, #4]
    1ac8:	1c28      	adds	r0, r5, #0
    1aca:	01a1      	lsls	r1, r4, #6
    1acc:	f7ff fe62 	bl	1794 <serial_baud>
    1ad0:	2200      	movs	r2, #0
    1ad2:	2301      	movs	r3, #1
    1ad4:	1c28      	adds	r0, r5, #0
    1ad6:	2108      	movs	r1, #8
    1ad8:	f7ff fefe 	bl	18d8 <serial_format>
    1adc:	1c38      	adds	r0, r7, #0
    1ade:	4649      	mov	r1, r9
    1ae0:	f000 f8c6 	bl	1c70 <pinmap_pinout>
    1ae4:	1c30      	adds	r0, r6, #0
    1ae6:	4641      	mov	r1, r8
    1ae8:	f000 f8c2 	bl	1c70 <pinmap_pinout>
    1aec:	1c38      	adds	r0, r7, #0
    1aee:	2102      	movs	r1, #2
    1af0:	f000 f988 	bl	1e04 <pin_mode>
    1af4:	1c30      	adds	r0, r6, #0
    1af6:	2102      	movs	r1, #2
    1af8:	f000 f984 	bl	1e04 <pin_mode>
    1afc:	682f      	ldr	r7, [r5, #0]
    1afe:	200c      	movs	r0, #12
    1b00:	78fe      	ldrb	r6, [r7, #3]
    1b02:	4330      	orrs	r0, r6
    1b04:	70f8      	strb	r0, [r7, #3]
    1b06:	4b14      	ldr	r3, [pc, #80]	; (1b58 <serial_init+0x1f4>)
    1b08:	2401      	movs	r4, #1
    1b0a:	1c29      	adds	r1, r5, #0
    1b0c:	2208      	movs	r2, #8
    1b0e:	4813      	ldr	r0, [pc, #76]	; (1b5c <serial_init+0x1f8>)
    1b10:	601c      	str	r4, [r3, #0]
    1b12:	f000 fd25 	bl	2560 <memcpy>
    1b16:	e7a9      	b.n	1a6c <serial_init+0x108>
    1b18:	58e2      	ldr	r2, [r4, r3]
    1b1a:	2180      	movs	r1, #128	; 0x80
    1b1c:	04c8      	lsls	r0, r1, #19
    1b1e:	4310      	orrs	r0, r2
    1b20:	50e0      	str	r0, [r4, r3]
    1b22:	e7c2      	b.n	1aaa <serial_init+0x146>
    1b24:	480e      	ldr	r0, [pc, #56]	; (1b60 <serial_init+0x1fc>)
    1b26:	f000 f843 	bl	1bb0 <error>
    1b2a:	602c      	str	r4, [r5, #0]
    1b2c:	78e0      	ldrb	r0, [r4, #3]
    1b2e:	230c      	movs	r3, #12
    1b30:	4398      	bics	r0, r3
    1b32:	70e0      	strb	r0, [r4, #3]
    1b34:	e749      	b.n	19ca <serial_init+0x66>
    1b36:	46c0      	nop			; (mov r8, r8)
    1b38:	00008b80 	andeq	r8, r0, r0, lsl #23
    1b3c:	00008b14 	andeq	r8, r0, r4, lsl fp
    1b40:	4006b000 	andmi	fp, r6, r0
    1b44:	4006c000 	andmi	ip, r6, r0
    1b48:	4006a000 	andmi	sl, r6, r0
    1b4c:	40047000 	andmi	r7, r4, r0
    1b50:	00001034 	andeq	r1, r0, r4, lsr r0
    1b54:	00001004 	andeq	r1, r0, r4
    1b58:	1ffff3fc 	svcne	0x00fff3fc
    1b5c:	1ffff41c 	svcne	0x00fff41c
    1b60:	00008af4 	strdeq	r8, [r0], -r4

00001b64 <serial_getc>:
    1b64:	6803      	ldr	r3, [r0, #0]
    1b66:	b530      	push	{r4, r5, lr}
    1b68:	2120      	movs	r1, #32
    1b6a:	2408      	movs	r4, #8
    1b6c:	2508      	movs	r5, #8
    1b6e:	791a      	ldrb	r2, [r3, #4]
    1b70:	4214      	tst	r4, r2
    1b72:	d004      	beq.n	1b7e <serial_getc+0x1a>
    1b74:	791a      	ldrb	r2, [r3, #4]
    1b76:	432a      	orrs	r2, r5
    1b78:	b2d2      	uxtb	r2, r2
    1b7a:	711a      	strb	r2, [r3, #4]
    1b7c:	6803      	ldr	r3, [r0, #0]
    1b7e:	791a      	ldrb	r2, [r3, #4]
    1b80:	4211      	tst	r1, r2
    1b82:	d0f4      	beq.n	1b6e <serial_getc+0xa>
    1b84:	79d8      	ldrb	r0, [r3, #7]
    1b86:	bd30      	pop	{r4, r5, pc}

00001b88 <serial_putc>:
    1b88:	6803      	ldr	r3, [r0, #0]
    1b8a:	b570      	push	{r4, r5, r6, lr}
    1b8c:	2508      	movs	r5, #8
    1b8e:	2608      	movs	r6, #8
    1b90:	247f      	movs	r4, #127	; 0x7f
    1b92:	791a      	ldrb	r2, [r3, #4]
    1b94:	4215      	tst	r5, r2
    1b96:	d004      	beq.n	1ba2 <serial_putc+0x1a>
    1b98:	791a      	ldrb	r2, [r3, #4]
    1b9a:	4332      	orrs	r2, r6
    1b9c:	b2d2      	uxtb	r2, r2
    1b9e:	711a      	strb	r2, [r3, #4]
    1ba0:	6803      	ldr	r3, [r0, #0]
    1ba2:	791a      	ldrb	r2, [r3, #4]
    1ba4:	43a2      	bics	r2, r4
    1ba6:	d0f4      	beq.n	1b92 <serial_putc+0xa>
    1ba8:	b2c9      	uxtb	r1, r1
    1baa:	71d9      	strb	r1, [r3, #7]
    1bac:	bd70      	pop	{r4, r5, r6, pc}
    1bae:	46c0      	nop			; (mov r8, r8)

00001bb0 <error>:
    1bb0:	b40f      	push	{r0, r1, r2, r3}
    1bb2:	b500      	push	{lr}
    1bb4:	b083      	sub	sp, #12
    1bb6:	aa04      	add	r2, sp, #16
    1bb8:	ca08      	ldmia	r2!, {r3}
    1bba:	4b05      	ldr	r3, [pc, #20]	; (1bd0 <error+0x20>)
    1bbc:	9904      	ldr	r1, [sp, #16]
    1bbe:	6818      	ldr	r0, [r3, #0]
    1bc0:	9201      	str	r2, [sp, #4]
    1bc2:	68c0      	ldr	r0, [r0, #12]
    1bc4:	f000 ffaa 	bl	2b1c <vfiprintf>
    1bc8:	2001      	movs	r0, #1
    1bca:	f000 f803 	bl	1bd4 <exit>
    1bce:	46c0      	nop			; (mov r8, r8)
    1bd0:	1ffff138 	svcne	0x00fff138

00001bd4 <exit>:
    1bd4:	b538      	push	{r3, r4, r5, lr}
    1bd6:	4c0b      	ldr	r4, [pc, #44]	; (1c04 <exit+0x30>)
    1bd8:	1c05      	adds	r5, r0, #0
    1bda:	6823      	ldr	r3, [r4, #0]
    1bdc:	6898      	ldr	r0, [r3, #8]
    1bde:	f000 fb95 	bl	230c <fflush>
    1be2:	6820      	ldr	r0, [r4, #0]
    1be4:	68c0      	ldr	r0, [r0, #12]
    1be6:	f000 fb91 	bl	230c <fflush>
    1bea:	f000 f83d 	bl	1c68 <mbed_interface_connected>
    1bee:	2800      	cmp	r0, #0
    1bf0:	d105      	bne.n	1bfe <exit+0x2a>
    1bf2:	2d00      	cmp	r5, #0
    1bf4:	d100      	bne.n	1bf8 <exit+0x24>
    1bf6:	e7fe      	b.n	1bf6 <exit+0x22>
    1bf8:	f7ff fcae 	bl	1558 <mbed_die>
    1bfc:	e7fb      	b.n	1bf6 <exit+0x22>
    1bfe:	f000 f87d 	bl	1cfc <semihost_exit>
    1c02:	e7f6      	b.n	1bf2 <exit+0x1e>
    1c04:	1ffff138 	svcne	0x00fff138

00001c08 <gpio_init_in>:
    1c08:	b538      	push	{r3, r4, r5, lr}
    1c0a:	1c0d      	adds	r5, r1, #0
    1c0c:	1c04      	adds	r4, r0, #0
    1c0e:	f000 f8a5 	bl	1d5c <gpio_init>
    1c12:	3501      	adds	r5, #1
    1c14:	d007      	beq.n	1c26 <gpio_init_in+0x1e>
    1c16:	1c20      	adds	r0, r4, #0
    1c18:	2100      	movs	r1, #0
    1c1a:	f000 f8bf 	bl	1d9c <gpio_dir>
    1c1e:	1c20      	adds	r0, r4, #0
    1c20:	2102      	movs	r1, #2
    1c22:	f000 f8b5 	bl	1d90 <gpio_mode>
    1c26:	bd38      	pop	{r3, r4, r5, pc}

00001c28 <gpio_init_out_ex>:
    1c28:	b570      	push	{r4, r5, r6, lr}
    1c2a:	1c0d      	adds	r5, r1, #0
    1c2c:	1c04      	adds	r4, r0, #0
    1c2e:	1c16      	adds	r6, r2, #0
    1c30:	f000 f894 	bl	1d5c <gpio_init>
    1c34:	3501      	adds	r5, #1
    1c36:	d00c      	beq.n	1c52 <gpio_init_out_ex+0x2a>
    1c38:	2e00      	cmp	r6, #0
    1c3a:	d10b      	bne.n	1c54 <gpio_init_out_ex+0x2c>
    1c3c:	6923      	ldr	r3, [r4, #16]
    1c3e:	6862      	ldr	r2, [r4, #4]
    1c40:	601a      	str	r2, [r3, #0]
    1c42:	1c20      	adds	r0, r4, #0
    1c44:	2101      	movs	r1, #1
    1c46:	f000 f8a9 	bl	1d9c <gpio_dir>
    1c4a:	1c20      	adds	r0, r4, #0
    1c4c:	2100      	movs	r1, #0
    1c4e:	f000 f89f 	bl	1d90 <gpio_mode>
    1c52:	bd70      	pop	{r4, r5, r6, pc}
    1c54:	68e0      	ldr	r0, [r4, #12]
    1c56:	6861      	ldr	r1, [r4, #4]
    1c58:	6001      	str	r1, [r0, #0]
    1c5a:	e7f2      	b.n	1c42 <gpio_init_out_ex+0x1a>

00001c5c <gpio_init_out>:
    1c5c:	b508      	push	{r3, lr}
    1c5e:	2200      	movs	r2, #0
    1c60:	f7ff ffe2 	bl	1c28 <gpio_init_out_ex>
    1c64:	bd08      	pop	{r3, pc}
    1c66:	46c0      	nop			; (mov r8, r8)

00001c68 <mbed_interface_connected>:
    1c68:	b508      	push	{r3, lr}
    1c6a:	f000 f853 	bl	1d14 <semihost_connected>
    1c6e:	bd08      	pop	{r3, pc}

00001c70 <pinmap_pinout>:
    1c70:	b510      	push	{r4, lr}
    1c72:	1c04      	adds	r4, r0, #0
    1c74:	1c42      	adds	r2, r0, #1
    1c76:	d103      	bne.n	1c80 <pinmap_pinout+0x10>
    1c78:	e009      	b.n	1c8e <pinmap_pinout+0x1e>
    1c7a:	429c      	cmp	r4, r3
    1c7c:	d008      	beq.n	1c90 <pinmap_pinout+0x20>
    1c7e:	310c      	adds	r1, #12
    1c80:	2200      	movs	r2, #0
    1c82:	5e8b      	ldrsh	r3, [r1, r2]
    1c84:	1c5a      	adds	r2, r3, #1
    1c86:	d1f8      	bne.n	1c7a <pinmap_pinout+0xa>
    1c88:	4806      	ldr	r0, [pc, #24]	; (1ca4 <pinmap_pinout+0x34>)
    1c8a:	f7ff ff91 	bl	1bb0 <error>
    1c8e:	bd10      	pop	{r4, pc}
    1c90:	1c20      	adds	r0, r4, #0
    1c92:	6889      	ldr	r1, [r1, #8]
    1c94:	f000 f892 	bl	1dbc <pin_function>
    1c98:	1c20      	adds	r0, r4, #0
    1c9a:	2100      	movs	r1, #0
    1c9c:	f000 f8b2 	bl	1e04 <pin_mode>
    1ca0:	e7f5      	b.n	1c8e <pinmap_pinout+0x1e>
    1ca2:	46c0      	nop			; (mov r8, r8)
    1ca4:	00008bec 	andeq	r8, r0, ip, ror #23

00001ca8 <pinmap_merge>:
    1ca8:	b508      	push	{r3, lr}
    1caa:	4288      	cmp	r0, r1
    1cac:	d008      	beq.n	1cc0 <pinmap_merge+0x18>
    1cae:	1c43      	adds	r3, r0, #1
    1cb0:	d007      	beq.n	1cc2 <pinmap_merge+0x1a>
    1cb2:	3101      	adds	r1, #1
    1cb4:	d004      	beq.n	1cc0 <pinmap_merge+0x18>
    1cb6:	4804      	ldr	r0, [pc, #16]	; (1cc8 <pinmap_merge+0x20>)
    1cb8:	f7ff ff7a 	bl	1bb0 <error>
    1cbc:	2001      	movs	r0, #1
    1cbe:	4240      	negs	r0, r0
    1cc0:	bd08      	pop	{r3, pc}
    1cc2:	1c08      	adds	r0, r1, #0
    1cc4:	e7fc      	b.n	1cc0 <pinmap_merge+0x18>
    1cc6:	46c0      	nop			; (mov r8, r8)
    1cc8:	00008c00 	andeq	r8, r0, r0, lsl #24

00001ccc <pinmap_peripheral>:
    1ccc:	1c02      	adds	r2, r0, #0
    1cce:	b508      	push	{r3, lr}
    1cd0:	1c53      	adds	r3, r2, #1
    1cd2:	d103      	bne.n	1cdc <pinmap_peripheral+0x10>
    1cd4:	e00b      	b.n	1cee <pinmap_peripheral+0x22>
    1cd6:	429a      	cmp	r2, r3
    1cd8:	d00a      	beq.n	1cf0 <pinmap_peripheral+0x24>
    1cda:	310c      	adds	r1, #12
    1cdc:	2000      	movs	r0, #0
    1cde:	5e0b      	ldrsh	r3, [r1, r0]
    1ce0:	1c58      	adds	r0, r3, #1
    1ce2:	d1f8      	bne.n	1cd6 <pinmap_peripheral+0xa>
    1ce4:	4804      	ldr	r0, [pc, #16]	; (1cf8 <pinmap_peripheral+0x2c>)
    1ce6:	f7ff ff63 	bl	1bb0 <error>
    1cea:	2001      	movs	r0, #1
    1cec:	4240      	negs	r0, r0
    1cee:	bd08      	pop	{r3, pc}
    1cf0:	6848      	ldr	r0, [r1, #4]
    1cf2:	1c43      	adds	r3, r0, #1
    1cf4:	d1fb      	bne.n	1cee <pinmap_peripheral+0x22>
    1cf6:	e7f5      	b.n	1ce4 <pinmap_peripheral+0x18>
    1cf8:	00008c14 	andeq	r8, r0, r4, lsl ip

00001cfc <semihost_exit>:
    1cfc:	b530      	push	{r4, r5, lr}
    1cfe:	b085      	sub	sp, #20
    1d00:	466d      	mov	r5, sp
    1d02:	2418      	movs	r4, #24
    1d04:	1c20      	adds	r0, r4, #0
    1d06:	1c29      	adds	r1, r5, #0
    1d08:	beab      	bkpt	0x00ab
    1d0a:	1c05      	adds	r5, r0, #0
    1d0c:	1c28      	adds	r0, r5, #0
    1d0e:	b005      	add	sp, #20
    1d10:	bd30      	pop	{r4, r5, pc}
    1d12:	46c0      	nop			; (mov r8, r8)

00001d14 <semihost_connected>:
    1d14:	4b01      	ldr	r3, [pc, #4]	; (1d1c <semihost_connected+0x8>)
    1d16:	6818      	ldr	r0, [r3, #0]
    1d18:	4770      	bx	lr
    1d1a:	46c0      	nop			; (mov r8, r8)
    1d1c:	1ffff0d4 	svcne	0x00fff0d4

00001d20 <wait_us>:
    1d20:	b538      	push	{r3, r4, r5, lr}
    1d22:	1c05      	adds	r5, r0, #0
    1d24:	f000 f9c0 	bl	20a8 <us_ticker_read>
    1d28:	1c04      	adds	r4, r0, #0
    1d2a:	f000 f9bd 	bl	20a8 <us_ticker_read>
    1d2e:	1b03      	subs	r3, r0, r4
    1d30:	42ab      	cmp	r3, r5
    1d32:	d3fa      	bcc.n	1d2a <wait_us+0xa>
    1d34:	bd38      	pop	{r3, r4, r5, pc}
    1d36:	46c0      	nop			; (mov r8, r8)

00001d38 <wait_ms>:
    1d38:	b508      	push	{r3, lr}
    1d3a:	23fa      	movs	r3, #250	; 0xfa
    1d3c:	0099      	lsls	r1, r3, #2
    1d3e:	4348      	muls	r0, r1
    1d40:	f7ff ffee 	bl	1d20 <wait_us>
    1d44:	bd08      	pop	{r3, pc}
    1d46:	46c0      	nop			; (mov r8, r8)

00001d48 <gpio_set>:
    1d48:	b510      	push	{r4, lr}
    1d4a:	2101      	movs	r1, #1
    1d4c:	1c04      	adds	r4, r0, #0
    1d4e:	f000 f835 	bl	1dbc <pin_function>
    1d52:	0660      	lsls	r0, r4, #25
    1d54:	0ec1      	lsrs	r1, r0, #27
    1d56:	2001      	movs	r0, #1
    1d58:	4088      	lsls	r0, r1
    1d5a:	bd10      	pop	{r4, pc}

00001d5c <gpio_init>:
    1d5c:	b538      	push	{r3, r4, r5, lr}
    1d5e:	1c04      	adds	r4, r0, #0
    1d60:	1c0d      	adds	r5, r1, #0
    1d62:	1c4b      	adds	r3, r1, #1
    1d64:	d010      	beq.n	1d88 <gpio_init+0x2c>
    1d66:	8021      	strh	r1, [r4, #0]
    1d68:	1c08      	adds	r0, r1, #0
    1d6a:	f7ff ffed 	bl	1d48 <gpio_set>
    1d6e:	4b07      	ldr	r3, [pc, #28]	; (1d8c <gpio_init+0x30>)
    1d70:	6060      	str	r0, [r4, #4]
    1d72:	0b28      	lsrs	r0, r5, #12
    1d74:	18c1      	adds	r1, r0, r3
    1d76:	018a      	lsls	r2, r1, #6
    1d78:	1d15      	adds	r5, r2, #4
    1d7a:	60e5      	str	r5, [r4, #12]
    1d7c:	3504      	adds	r5, #4
    1d7e:	6125      	str	r5, [r4, #16]
    1d80:	3214      	adds	r2, #20
    1d82:	3508      	adds	r5, #8
    1d84:	6165      	str	r5, [r4, #20]
    1d86:	60a2      	str	r2, [r4, #8]
    1d88:	bd38      	pop	{r3, r4, r5, pc}
    1d8a:	46c0      	nop			; (mov r8, r8)
    1d8c:	03e03fc0 	mvneq	r3, #192, 30	; 0x300

00001d90 <gpio_mode>:
    1d90:	b508      	push	{r3, lr}
    1d92:	2300      	movs	r3, #0
    1d94:	5ec0      	ldrsh	r0, [r0, r3]
    1d96:	f000 f835 	bl	1e04 <pin_mode>
    1d9a:	bd08      	pop	{r3, pc}

00001d9c <gpio_dir>:
    1d9c:	2900      	cmp	r1, #0
    1d9e:	d105      	bne.n	1dac <gpio_dir+0x10>
    1da0:	6883      	ldr	r3, [r0, #8]
    1da2:	6840      	ldr	r0, [r0, #4]
    1da4:	681a      	ldr	r2, [r3, #0]
    1da6:	4382      	bics	r2, r0
    1da8:	601a      	str	r2, [r3, #0]
    1daa:	4770      	bx	lr
    1dac:	2901      	cmp	r1, #1
    1dae:	d1fc      	bne.n	1daa <gpio_dir+0xe>
    1db0:	6883      	ldr	r3, [r0, #8]
    1db2:	6842      	ldr	r2, [r0, #4]
    1db4:	6819      	ldr	r1, [r3, #0]
    1db6:	430a      	orrs	r2, r1
    1db8:	601a      	str	r2, [r3, #0]
    1dba:	e7f6      	b.n	1daa <gpio_dir+0xe>

00001dbc <pin_function>:
    1dbc:	b5f0      	push	{r4, r5, r6, r7, lr}
    1dbe:	1c42      	adds	r2, r0, #1
    1dc0:	d016      	beq.n	1df0 <pin_function+0x34>
    1dc2:	0b03      	lsrs	r3, r0, #12
    1dc4:	4c0b      	ldr	r4, [pc, #44]	; (1df4 <pin_function+0x38>)
    1dc6:	4a0c      	ldr	r2, [pc, #48]	; (1df8 <pin_function+0x3c>)
    1dc8:	1c1d      	adds	r5, r3, #0
    1dca:	3509      	adds	r5, #9
    1dcc:	2701      	movs	r7, #1
    1dce:	58a6      	ldr	r6, [r4, r2]
    1dd0:	40af      	lsls	r7, r5
    1dd2:	1c3d      	adds	r5, r7, #0
    1dd4:	4335      	orrs	r5, r6
    1dd6:	50a5      	str	r5, [r4, r2]
    1dd8:	4c08      	ldr	r4, [pc, #32]	; (1dfc <pin_function+0x40>)
    1dda:	227c      	movs	r2, #124	; 0x7c
    1ddc:	191b      	adds	r3, r3, r4
    1dde:	031e      	lsls	r6, r3, #12
    1de0:	4010      	ands	r0, r2
    1de2:	5987      	ldr	r7, [r0, r6]
    1de4:	4d06      	ldr	r5, [pc, #24]	; (1e00 <pin_function+0x44>)
    1de6:	020c      	lsls	r4, r1, #8
    1de8:	402f      	ands	r7, r5
    1dea:	1c39      	adds	r1, r7, #0
    1dec:	4321      	orrs	r1, r4
    1dee:	5181      	str	r1, [r0, r6]
    1df0:	bdf0      	pop	{r4, r5, r6, r7, pc}
    1df2:	46c0      	nop			; (mov r8, r8)
    1df4:	40047000 	andmi	r7, r4, r0
    1df8:	00001038 	andeq	r1, r0, r8, lsr r0
    1dfc:	00040049 	andeq	r0, r4, r9, asr #32
    1e00:	fffff8ff 			; <UNDEFINED> instruction: 0xfffff8ff

00001e04 <pin_mode>:
    1e04:	1c43      	adds	r3, r0, #1
    1e06:	d006      	beq.n	1e16 <pin_mode+0x12>
    1e08:	4b03      	ldr	r3, [pc, #12]	; (1e18 <pin_mode+0x14>)
    1e0a:	2203      	movs	r2, #3
    1e0c:	18c0      	adds	r0, r0, r3
    1e0e:	6803      	ldr	r3, [r0, #0]
    1e10:	4393      	bics	r3, r2
    1e12:	4319      	orrs	r1, r3
    1e14:	6001      	str	r1, [r0, #0]
    1e16:	4770      	bx	lr
    1e18:	40049000 	andmi	r9, r4, r0

00001e1c <lptmr_isr>:
    1e1c:	4b15      	ldr	r3, [pc, #84]	; (1e74 <lptmr_isr+0x58>)
    1e1e:	2280      	movs	r2, #128	; 0x80
    1e20:	6819      	ldr	r1, [r3, #0]
    1e22:	b510      	push	{r4, lr}
    1e24:	430a      	orrs	r2, r1
    1e26:	4914      	ldr	r1, [pc, #80]	; (1e78 <lptmr_isr+0x5c>)
    1e28:	601a      	str	r2, [r3, #0]
    1e2a:	680a      	ldr	r2, [r1, #0]
    1e2c:	2a00      	cmp	r2, #0
    1e2e:	d112      	bne.n	1e56 <lptmr_isr+0x3a>
    1e30:	4912      	ldr	r1, [pc, #72]	; (1e7c <lptmr_isr+0x60>)
    1e32:	8808      	ldrh	r0, [r1, #0]
    1e34:	2800      	cmp	r0, #0
    1e36:	d00b      	beq.n	1e50 <lptmr_isr+0x34>
    1e38:	601a      	str	r2, [r3, #0]
    1e3a:	6098      	str	r0, [r3, #8]
    1e3c:	681c      	ldr	r4, [r3, #0]
    1e3e:	2040      	movs	r0, #64	; 0x40
    1e40:	4320      	orrs	r0, r4
    1e42:	6018      	str	r0, [r3, #0]
    1e44:	681c      	ldr	r4, [r3, #0]
    1e46:	2001      	movs	r0, #1
    1e48:	4320      	orrs	r0, r4
    1e4a:	6018      	str	r0, [r3, #0]
    1e4c:	800a      	strh	r2, [r1, #0]
    1e4e:	bd10      	pop	{r4, pc}
    1e50:	f000 f97c 	bl	214c <us_ticker_irq_handler>
    1e54:	e7fb      	b.n	1e4e <lptmr_isr+0x32>
    1e56:	480a      	ldr	r0, [pc, #40]	; (1e80 <lptmr_isr+0x64>)
    1e58:	2400      	movs	r4, #0
    1e5a:	601c      	str	r4, [r3, #0]
    1e5c:	6098      	str	r0, [r3, #8]
    1e5e:	681c      	ldr	r4, [r3, #0]
    1e60:	2040      	movs	r0, #64	; 0x40
    1e62:	4320      	orrs	r0, r4
    1e64:	6018      	str	r0, [r3, #0]
    1e66:	681c      	ldr	r4, [r3, #0]
    1e68:	2001      	movs	r0, #1
    1e6a:	4320      	orrs	r0, r4
    1e6c:	3a01      	subs	r2, #1
    1e6e:	6018      	str	r0, [r3, #0]
    1e70:	600a      	str	r2, [r1, #0]
    1e72:	e7ec      	b.n	1e4e <lptmr_isr+0x32>
    1e74:	40040000 	andmi	r0, r4, r0
    1e78:	1ffff400 	svcne	0x00fff400
    1e7c:	1ffff408 	svcne	0x00fff408
    1e80:	0000ffff 	strdeq	pc, [r0], -pc	; <UNPREDICTABLE>

00001e84 <us_ticker_init>:
    1e84:	b5f8      	push	{r3, r4, r5, r6, r7, lr}
    1e86:	4b79      	ldr	r3, [pc, #484]	; (206c <us_ticker_init+0x1e8>)
    1e88:	464f      	mov	r7, r9
    1e8a:	681d      	ldr	r5, [r3, #0]
    1e8c:	4646      	mov	r6, r8
    1e8e:	b4c0      	push	{r6, r7}
    1e90:	2d00      	cmp	r5, #0
    1e92:	d003      	beq.n	1e9c <us_ticker_init+0x18>
    1e94:	bc0c      	pop	{r2, r3}
    1e96:	4690      	mov	r8, r2
    1e98:	4699      	mov	r9, r3
    1e9a:	bdf8      	pop	{r3, r4, r5, r6, r7, pc}
    1e9c:	4e74      	ldr	r6, [pc, #464]	; (2070 <us_ticker_init+0x1ec>)
    1e9e:	4875      	ldr	r0, [pc, #468]	; (2074 <us_ticker_init+0x1f0>)
    1ea0:	2280      	movs	r2, #128	; 0x80
    1ea2:	5831      	ldr	r1, [r6, r0]
    1ea4:	0414      	lsls	r4, r2, #16
    1ea6:	2701      	movs	r7, #1
    1ea8:	430c      	orrs	r4, r1
    1eaa:	601f      	str	r7, [r3, #0]
    1eac:	2188      	movs	r1, #136	; 0x88
    1eae:	5034      	str	r4, [r6, r0]
    1eb0:	2301      	movs	r3, #1
    1eb2:	4c71      	ldr	r4, [pc, #452]	; (2078 <us_ticker_init+0x1f4>)
    1eb4:	4258      	negs	r0, r3
    1eb6:	004a      	lsls	r2, r1, #1
    1eb8:	238c      	movs	r3, #140	; 0x8c
    1eba:	6025      	str	r5, [r4, #0]
    1ebc:	2104      	movs	r1, #4
    1ebe:	50a0      	str	r0, [r4, r2]
    1ec0:	0058      	lsls	r0, r3, #1
    1ec2:	5021      	str	r1, [r4, r0]
    1ec4:	5822      	ldr	r2, [r4, r0]
    1ec6:	4b6d      	ldr	r3, [pc, #436]	; (207c <us_ticker_init+0x1f8>)
    1ec8:	433a      	orrs	r2, r7
    1eca:	5022      	str	r2, [r4, r0]
    1ecc:	58f1      	ldr	r1, [r6, r3]
    1ece:	4a6c      	ldr	r2, [pc, #432]	; (2080 <us_ticker_init+0x1fc>)
    1ed0:	4699      	mov	r9, r3
    1ed2:	034b      	lsls	r3, r1, #13
    1ed4:	0f59      	lsrs	r1, r3, #29
    1ed6:	6810      	ldr	r0, [r2, #0]
    1ed8:	3101      	adds	r1, #1
    1eda:	4690      	mov	r8, r2
    1edc:	f004 fc6e 	bl	67bc <__aeabi_uidiv>
    1ee0:	4968      	ldr	r1, [pc, #416]	; (2084 <us_ticker_init+0x200>)
    1ee2:	1840      	adds	r0, r0, r1
    1ee4:	4968      	ldr	r1, [pc, #416]	; (2088 <us_ticker_init+0x204>)
    1ee6:	f004 fc69 	bl	67bc <__aeabi_uidiv>
    1eea:	2280      	movs	r2, #128	; 0x80
    1eec:	0053      	lsls	r3, r2, #1
    1eee:	3801      	subs	r0, #1
    1ef0:	50e0      	str	r0, [r4, r3]
    1ef2:	2084      	movs	r0, #132	; 0x84
    1ef4:	0041      	lsls	r1, r0, #1
    1ef6:	5067      	str	r7, [r4, r1]
    1ef8:	4c64      	ldr	r4, [pc, #400]	; (208c <us_ticker_init+0x208>)
    1efa:	4b65      	ldr	r3, [pc, #404]	; (2090 <us_ticker_init+0x20c>)
    1efc:	5932      	ldr	r2, [r6, r4]
    1efe:	201c      	movs	r0, #28
    1f00:	433a      	orrs	r2, r7
    1f02:	5132      	str	r2, [r6, r4]
    1f04:	4963      	ldr	r1, [pc, #396]	; (2094 <us_ticker_init+0x210>)
    1f06:	601d      	str	r5, [r3, #0]
    1f08:	f7ff faa2 	bl	1450 <NVIC_SetVector>
    1f0c:	2580      	movs	r5, #128	; 0x80
    1f0e:	4962      	ldr	r1, [pc, #392]	; (2098 <us_ticker_init+0x214>)
    1f10:	0568      	lsls	r0, r5, #21
    1f12:	6008      	str	r0, [r1, #0]
    1f14:	464c      	mov	r4, r9
    1f16:	5936      	ldr	r6, [r6, r4]
    1f18:	4d60      	ldr	r5, [pc, #384]	; (209c <us_ticker_init+0x218>)
    1f1a:	4642      	mov	r2, r8
    1f1c:	0f34      	lsrs	r4, r6, #28
    1f1e:	6813      	ldr	r3, [r2, #0]
    1f20:	7828      	ldrb	r0, [r5, #0]
    1f22:	3401      	adds	r4, #1
    1f24:	263f      	movs	r6, #63	; 0x3f
    1f26:	435c      	muls	r4, r3
    1f28:	43b0      	bics	r0, r6
    1f2a:	2880      	cmp	r0, #128	; 0x80
    1f2c:	d027      	beq.n	1f7e <us_ticker_init+0xfa>
    1f2e:	7829      	ldrb	r1, [r5, #0]
    1f30:	43b1      	bics	r1, r6
    1f32:	d148      	bne.n	1fc6 <us_ticker_init+0x142>
    1f34:	796b      	ldrb	r3, [r5, #5]
    1f36:	0659      	lsls	r1, r3, #25
    1f38:	d46b      	bmi.n	2012 <us_ticker_init+0x18e>
    1f3a:	79a8      	ldrb	r0, [r5, #6]
    1f3c:	06c1      	lsls	r1, r0, #27
    1f3e:	d442      	bmi.n	1fc6 <us_ticker_init+0x142>
    1f40:	782e      	ldrb	r6, [r5, #0]
    1f42:	786d      	ldrb	r5, [r5, #1]
    1f44:	06b1      	lsls	r1, r6, #26
    1f46:	0f4a      	lsrs	r2, r1, #29
    1f48:	4097      	lsls	r7, r2
    1f4a:	23ff      	movs	r3, #255	; 0xff
    1f4c:	2030      	movs	r0, #48	; 0x30
    1f4e:	401f      	ands	r7, r3
    1f50:	4228      	tst	r0, r5
    1f52:	d000      	beq.n	1f56 <us_ticker_init+0xd2>
    1f54:	017f      	lsls	r7, r7, #5
    1f56:	4e51      	ldr	r6, [pc, #324]	; (209c <us_ticker_init+0x218>)
    1f58:	221f      	movs	r2, #31
    1f5a:	78f1      	ldrb	r1, [r6, #3]
    1f5c:	4391      	bics	r1, r2
    1f5e:	2960      	cmp	r1, #96	; 0x60
    1f60:	d064      	beq.n	202c <us_ticker_init+0x1a8>
    1f62:	d866      	bhi.n	2032 <us_ticker_init+0x1ae>
    1f64:	2920      	cmp	r1, #32
    1f66:	d078      	beq.n	205a <us_ticker_init+0x1d6>
    1f68:	2940      	cmp	r1, #64	; 0x40
    1f6a:	d079      	beq.n	2060 <us_ticker_init+0x1dc>
    1f6c:	2900      	cmp	r1, #0
    1f6e:	d166      	bne.n	203e <us_ticker_init+0x1ba>
    1f70:	23a0      	movs	r3, #160	; 0xa0
    1f72:	0099      	lsls	r1, r3, #2
    1f74:	1c20      	adds	r0, r4, #0
    1f76:	4378      	muls	r0, r7
    1f78:	f004 fc20 	bl	67bc <__aeabi_uidiv>
    1f7c:	1c04      	adds	r4, r0, #0
    1f7e:	2c00      	cmp	r4, #0
    1f80:	d021      	beq.n	1fc6 <us_ticker_init+0x142>
    1f82:	1c20      	adds	r0, r4, #0
    1f84:	4940      	ldr	r1, [pc, #256]	; (2088 <us_ticker_init+0x204>)
    1f86:	f004 fc5d 	bl	6844 <__aeabi_uidivmod>
    1f8a:	2900      	cmp	r1, #0
    1f8c:	d11b      	bne.n	1fc6 <us_ticker_init+0x142>
    1f8e:	1c20      	adds	r0, r4, #0
    1f90:	493d      	ldr	r1, [pc, #244]	; (2088 <us_ticker_init+0x204>)
    1f92:	f004 fc13 	bl	67bc <__aeabi_uidiv>
    1f96:	2801      	cmp	r0, #1
    1f98:	d056      	beq.n	2048 <us_ticker_init+0x1c4>
    1f9a:	0844      	lsrs	r4, r0, #1
    1f9c:	2c01      	cmp	r4, #1
    1f9e:	d062      	beq.n	2066 <us_ticker_init+0x1e2>
    1fa0:	07e2      	lsls	r2, r4, #31
    1fa2:	d410      	bmi.n	1fc6 <us_ticker_init+0x142>
    1fa4:	2300      	movs	r3, #0
    1fa6:	2701      	movs	r7, #1
    1fa8:	e001      	b.n	1fae <us_ticker_init+0x12a>
    1faa:	4227      	tst	r7, r4
    1fac:	d10b      	bne.n	1fc6 <us_ticker_init+0x142>
    1fae:	3301      	adds	r3, #1
    1fb0:	0864      	lsrs	r4, r4, #1
    1fb2:	2c01      	cmp	r4, #1
    1fb4:	d1f9      	bne.n	1faa <us_ticker_init+0x126>
    1fb6:	00dd      	lsls	r5, r3, #3
    1fb8:	2078      	movs	r0, #120	; 0x78
    1fba:	4005      	ands	r5, r0
    1fbc:	2603      	movs	r6, #3
    1fbe:	4335      	orrs	r5, r6
    1fc0:	4f33      	ldr	r7, [pc, #204]	; (2090 <us_ticker_init+0x20c>)
    1fc2:	607d      	str	r5, [r7, #4]
    1fc4:	e766      	b.n	1e94 <us_ticker_init+0x10>
    1fc6:	4c35      	ldr	r4, [pc, #212]	; (209c <us_ticker_init+0x218>)
    1fc8:	2202      	movs	r2, #2
    1fca:	7821      	ldrb	r1, [r4, #0]
    1fcc:	2301      	movs	r3, #1
    1fce:	430a      	orrs	r2, r1
    1fd0:	7022      	strb	r2, [r4, #0]
    1fd2:	7867      	ldrb	r7, [r4, #1]
    1fd4:	4d2e      	ldr	r5, [pc, #184]	; (2090 <us_ticker_init+0x20c>)
    1fd6:	433b      	orrs	r3, r7
    1fd8:	2000      	movs	r0, #0
    1fda:	7063      	strb	r3, [r4, #1]
    1fdc:	6068      	str	r0, [r5, #4]
    1fde:	7a26      	ldrb	r6, [r4, #8]
    1fe0:	220e      	movs	r2, #14
    1fe2:	4016      	ands	r6, r2
    1fe4:	d00d      	beq.n	2002 <us_ticker_init+0x17e>
    1fe6:	2e02      	cmp	r6, #2
    1fe8:	d010      	beq.n	200c <us_ticker_init+0x188>
    1fea:	7a21      	ldrb	r1, [r4, #8]
    1fec:	2304      	movs	r3, #4
    1fee:	4391      	bics	r1, r2
    1ff0:	7221      	strb	r1, [r4, #8]
    1ff2:	7a27      	ldrb	r7, [r4, #8]
    1ff4:	2004      	movs	r0, #4
    1ff6:	433b      	orrs	r3, r7
    1ff8:	7223      	strb	r3, [r4, #8]
    1ffa:	686c      	ldr	r4, [r5, #4]
    1ffc:	4320      	orrs	r0, r4
    1ffe:	6068      	str	r0, [r5, #4]
    2000:	e748      	b.n	1e94 <us_ticker_init+0x10>
    2002:	686a      	ldr	r2, [r5, #4]
    2004:	2108      	movs	r1, #8
    2006:	4311      	orrs	r1, r2
    2008:	6069      	str	r1, [r5, #4]
    200a:	e743      	b.n	1e94 <us_ticker_init+0x10>
    200c:	686e      	ldr	r6, [r5, #4]
    200e:	606e      	str	r6, [r5, #4]
    2010:	e740      	b.n	1e94 <us_ticker_init+0x10>
    2012:	7928      	ldrb	r0, [r5, #4]
    2014:	796f      	ldrb	r7, [r5, #5]
    2016:	251f      	movs	r5, #31
    2018:	4028      	ands	r0, r5
    201a:	403d      	ands	r5, r7
    201c:	3001      	adds	r0, #1
    201e:	1c29      	adds	r1, r5, #0
    2020:	4360      	muls	r0, r4
    2022:	3118      	adds	r1, #24
    2024:	f004 fbca 	bl	67bc <__aeabi_uidiv>
    2028:	1c04      	adds	r4, r0, #0
    202a:	e7a8      	b.n	1f7e <us_ticker_init+0xfa>
    202c:	22a0      	movs	r2, #160	; 0xa0
    202e:	0111      	lsls	r1, r2, #4
    2030:	e7a0      	b.n	1f74 <us_ticker_init+0xf0>
    2032:	29a0      	cmp	r1, #160	; 0xa0
    2034:	d00e      	beq.n	2054 <us_ticker_init+0x1d0>
    2036:	29c0      	cmp	r1, #192	; 0xc0
    2038:	d00a      	beq.n	2050 <us_ticker_init+0x1cc>
    203a:	2980      	cmp	r1, #128	; 0x80
    203c:	d001      	beq.n	2042 <us_ticker_init+0x1be>
    203e:	4918      	ldr	r1, [pc, #96]	; (20a0 <us_ticker_init+0x21c>)
    2040:	e798      	b.n	1f74 <us_ticker_init+0xf0>
    2042:	26b7      	movs	r6, #183	; 0xb7
    2044:	00b1      	lsls	r1, r6, #2
    2046:	e795      	b.n	1f74 <us_ticker_init+0xf0>
    2048:	4b11      	ldr	r3, [pc, #68]	; (2090 <us_ticker_init+0x20c>)
    204a:	2507      	movs	r5, #7
    204c:	605d      	str	r5, [r3, #4]
    204e:	e721      	b.n	1e94 <us_ticker_init+0x10>
    2050:	4914      	ldr	r1, [pc, #80]	; (20a4 <us_ticker_init+0x220>)
    2052:	e78f      	b.n	1f74 <us_ticker_init+0xf0>
    2054:	21b7      	movs	r1, #183	; 0xb7
    2056:	00c9      	lsls	r1, r1, #3
    2058:	e78c      	b.n	1f74 <us_ticker_init+0xf0>
    205a:	20a0      	movs	r0, #160	; 0xa0
    205c:	00c1      	lsls	r1, r0, #3
    205e:	e789      	b.n	1f74 <us_ticker_init+0xf0>
    2060:	25f0      	movs	r5, #240	; 0xf0
    2062:	00e9      	lsls	r1, r5, #3
    2064:	e786      	b.n	1f74 <us_ticker_init+0xf0>
    2066:	2503      	movs	r5, #3
    2068:	e7aa      	b.n	1fc0 <us_ticker_init+0x13c>
    206a:	46c0      	nop			; (mov r8, r8)
    206c:	1ffff404 	svcne	0x00fff404
    2070:	40047000 	andmi	r7, r4, r0
    2074:	0000103c 	andeq	r1, r0, ip, lsr r0
    2078:	40037000 	andmi	r7, r3, r0
    207c:	00001044 	andeq	r1, r0, r4, asr #32
    2080:	1ffff0cc 	svcne	0x00fff0cc
    2084:	0007a120 	andeq	sl, r7, r0, lsr #2
    2088:	000f4240 	andeq	r4, pc, r0, asr #4
    208c:	00001038 	andeq	r1, r0, r8, lsr r0
    2090:	40040000 	andmi	r0, r4, r0
    2094:	00001e1d 	andeq	r1, r0, sp, lsl lr
    2098:	e000e100 	and	lr, r0, r0, lsl #2
    209c:	40064000 	andmi	r4, r6, r0
    20a0:	00000b71 	andeq	r0, r0, r1, ror fp
    20a4:	00000895 	muleq	r0, r5, r8

000020a8 <us_ticker_read>:
    20a8:	b508      	push	{r3, lr}
    20aa:	4b06      	ldr	r3, [pc, #24]	; (20c4 <us_ticker_read+0x1c>)
    20ac:	6818      	ldr	r0, [r3, #0]
    20ae:	2800      	cmp	r0, #0
    20b0:	d101      	bne.n	20b6 <us_ticker_read+0xe>
    20b2:	f7ff fee7 	bl	1e84 <us_ticker_init>
    20b6:	218a      	movs	r1, #138	; 0x8a
    20b8:	4a03      	ldr	r2, [pc, #12]	; (20c8 <us_ticker_read+0x20>)
    20ba:	004b      	lsls	r3, r1, #1
    20bc:	58d0      	ldr	r0, [r2, r3]
    20be:	43c0      	mvns	r0, r0
    20c0:	bd08      	pop	{r3, pc}
    20c2:	46c0      	nop			; (mov r8, r8)
    20c4:	1ffff404 	svcne	0x00fff404
    20c8:	40037000 	andmi	r7, r3, r0

000020cc <us_ticker_disable_interrupt>:
    20cc:	4b02      	ldr	r3, [pc, #8]	; (20d8 <us_ticker_disable_interrupt+0xc>)
    20ce:	2140      	movs	r1, #64	; 0x40
    20d0:	681a      	ldr	r2, [r3, #0]
    20d2:	438a      	bics	r2, r1
    20d4:	601a      	str	r2, [r3, #0]
    20d6:	4770      	bx	lr
    20d8:	40040000 	andmi	r0, r4, r0

000020dc <us_ticker_clear_interrupt>:
    20dc:	4770      	bx	lr
    20de:	46c0      	nop			; (mov r8, r8)

000020e0 <us_ticker_set_interrupt>:
    20e0:	b510      	push	{r4, lr}
    20e2:	1c04      	adds	r4, r0, #0
    20e4:	f7ff ffe0 	bl	20a8 <us_ticker_read>
    20e8:	1a20      	subs	r0, r4, r0
    20ea:	2800      	cmp	r0, #0
    20ec:	dd23      	ble.n	2136 <us_ticker_set_interrupt+0x56>
    20ee:	4c13      	ldr	r4, [pc, #76]	; (213c <us_ticker_set_interrupt+0x5c>)
    20f0:	4913      	ldr	r1, [pc, #76]	; (2140 <us_ticker_set_interrupt+0x60>)
    20f2:	1403      	asrs	r3, r0, #16
    20f4:	6023      	str	r3, [r4, #0]
    20f6:	8008      	strh	r0, [r1, #0]
    20f8:	4a12      	ldr	r2, [pc, #72]	; (2144 <us_ticker_set_interrupt+0x64>)
    20fa:	d10d      	bne.n	2118 <us_ticker_set_interrupt+0x38>
    20fc:	0400      	lsls	r0, r0, #16
    20fe:	0c04      	lsrs	r4, r0, #16
    2100:	6013      	str	r3, [r2, #0]
    2102:	6094      	str	r4, [r2, #8]
    2104:	6814      	ldr	r4, [r2, #0]
    2106:	2040      	movs	r0, #64	; 0x40
    2108:	4320      	orrs	r0, r4
    210a:	6010      	str	r0, [r2, #0]
    210c:	6814      	ldr	r4, [r2, #0]
    210e:	2001      	movs	r0, #1
    2110:	4320      	orrs	r0, r4
    2112:	6010      	str	r0, [r2, #0]
    2114:	800b      	strh	r3, [r1, #0]
    2116:	bd10      	pop	{r4, pc}
    2118:	480b      	ldr	r0, [pc, #44]	; (2148 <us_ticker_set_interrupt+0x68>)
    211a:	2100      	movs	r1, #0
    211c:	6011      	str	r1, [r2, #0]
    211e:	6090      	str	r0, [r2, #8]
    2120:	6810      	ldr	r0, [r2, #0]
    2122:	2140      	movs	r1, #64	; 0x40
    2124:	4301      	orrs	r1, r0
    2126:	6011      	str	r1, [r2, #0]
    2128:	6810      	ldr	r0, [r2, #0]
    212a:	2101      	movs	r1, #1
    212c:	4301      	orrs	r1, r0
    212e:	3b01      	subs	r3, #1
    2130:	6011      	str	r1, [r2, #0]
    2132:	6023      	str	r3, [r4, #0]
    2134:	e7ef      	b.n	2116 <us_ticker_set_interrupt+0x36>
    2136:	f000 f809 	bl	214c <us_ticker_irq_handler>
    213a:	e7ec      	b.n	2116 <us_ticker_set_interrupt+0x36>
    213c:	1ffff400 	svcne	0x00fff400
    2140:	1ffff408 	svcne	0x00fff408
    2144:	40040000 	andmi	r0, r4, r0
    2148:	0000ffff 	strdeq	pc, [r0], -pc	; <UNPREDICTABLE>

0000214c <us_ticker_irq_handler>:
    214c:	b570      	push	{r4, r5, r6, lr}
    214e:	f7ff ffc5 	bl	20dc <us_ticker_clear_interrupt>
    2152:	4c0e      	ldr	r4, [pc, #56]	; (218c <us_ticker_irq_handler+0x40>)
    2154:	4e0e      	ldr	r6, [pc, #56]	; (2190 <us_ticker_irq_handler+0x44>)
    2156:	6825      	ldr	r5, [r4, #0]
    2158:	e00b      	b.n	2172 <us_ticker_irq_handler+0x26>
    215a:	682d      	ldr	r5, [r5, #0]
    215c:	f7ff ffa4 	bl	20a8 <us_ticker_read>
    2160:	1a28      	subs	r0, r5, r0
    2162:	2800      	cmp	r0, #0
    2164:	dc0a      	bgt.n	217c <us_ticker_irq_handler+0x30>
    2166:	6821      	ldr	r1, [r4, #0]
    2168:	6832      	ldr	r2, [r6, #0]
    216a:	688d      	ldr	r5, [r1, #8]
    216c:	6025      	str	r5, [r4, #0]
    216e:	2a00      	cmp	r2, #0
    2170:	d109      	bne.n	2186 <us_ticker_irq_handler+0x3a>
    2172:	2d00      	cmp	r5, #0
    2174:	d1f1      	bne.n	215a <us_ticker_irq_handler+0xe>
    2176:	f7ff ffa9 	bl	20cc <us_ticker_disable_interrupt>
    217a:	bd70      	pop	{r4, r5, r6, pc}
    217c:	6823      	ldr	r3, [r4, #0]
    217e:	6818      	ldr	r0, [r3, #0]
    2180:	f7ff ffae 	bl	20e0 <us_ticker_set_interrupt>
    2184:	e7f9      	b.n	217a <us_ticker_irq_handler+0x2e>
    2186:	6848      	ldr	r0, [r1, #4]
    2188:	4790      	blx	r2
    218a:	e7e4      	b.n	2156 <us_ticker_irq_handler+0xa>
    218c:	1ffff40c 	svcne	0x00fff40c
    2190:	1ffff410 	svcne	0x00fff410

00002194 <__errno>:
    2194:	4b01      	ldr	r3, [pc, #4]	; (219c <__errno+0x8>)
    2196:	6818      	ldr	r0, [r3, #0]
    2198:	4770      	bx	lr
    219a:	46c0      	nop			; (mov r8, r8)
    219c:	1ffff138 	svcne	0x00fff138

000021a0 <__sflush_r>:
    21a0:	b5f7      	push	{r0, r1, r2, r4, r5, r6, r7, lr}
    21a2:	898b      	ldrh	r3, [r1, #12]
    21a4:	1c05      	adds	r5, r0, #0
    21a6:	1c0c      	adds	r4, r1, #0
    21a8:	0719      	lsls	r1, r3, #28
    21aa:	d45e      	bmi.n	226a <__sflush_r+0xca>
    21ac:	6862      	ldr	r2, [r4, #4]
    21ae:	2a00      	cmp	r2, #0
    21b0:	dc02      	bgt.n	21b8 <__sflush_r+0x18>
    21b2:	6c27      	ldr	r7, [r4, #64]	; 0x40
    21b4:	2f00      	cmp	r7, #0
    21b6:	dd1a      	ble.n	21ee <__sflush_r+0x4e>
    21b8:	6ae7      	ldr	r7, [r4, #44]	; 0x2c
    21ba:	2f00      	cmp	r7, #0
    21bc:	d017      	beq.n	21ee <__sflush_r+0x4e>
    21be:	2200      	movs	r2, #0
    21c0:	682e      	ldr	r6, [r5, #0]
    21c2:	602a      	str	r2, [r5, #0]
    21c4:	2280      	movs	r2, #128	; 0x80
    21c6:	0152      	lsls	r2, r2, #5
    21c8:	401a      	ands	r2, r3
    21ca:	d001      	beq.n	21d0 <__sflush_r+0x30>
    21cc:	6d62      	ldr	r2, [r4, #84]	; 0x54
    21ce:	e015      	b.n	21fc <__sflush_r+0x5c>
    21d0:	1c28      	adds	r0, r5, #0
    21d2:	6a21      	ldr	r1, [r4, #32]
    21d4:	2301      	movs	r3, #1
    21d6:	47b8      	blx	r7
    21d8:	1c02      	adds	r2, r0, #0
    21da:	1c41      	adds	r1, r0, #1
    21dc:	d10e      	bne.n	21fc <__sflush_r+0x5c>
    21de:	682b      	ldr	r3, [r5, #0]
    21e0:	2b00      	cmp	r3, #0
    21e2:	d00b      	beq.n	21fc <__sflush_r+0x5c>
    21e4:	2b1d      	cmp	r3, #29
    21e6:	d001      	beq.n	21ec <__sflush_r+0x4c>
    21e8:	2b16      	cmp	r3, #22
    21ea:	d102      	bne.n	21f2 <__sflush_r+0x52>
    21ec:	602e      	str	r6, [r5, #0]
    21ee:	2000      	movs	r0, #0
    21f0:	e05e      	b.n	22b0 <__sflush_r+0x110>
    21f2:	89a3      	ldrh	r3, [r4, #12]
    21f4:	2140      	movs	r1, #64	; 0x40
    21f6:	430b      	orrs	r3, r1
    21f8:	81a3      	strh	r3, [r4, #12]
    21fa:	e059      	b.n	22b0 <__sflush_r+0x110>
    21fc:	89a3      	ldrh	r3, [r4, #12]
    21fe:	075f      	lsls	r7, r3, #29
    2200:	d506      	bpl.n	2210 <__sflush_r+0x70>
    2202:	6861      	ldr	r1, [r4, #4]
    2204:	6b63      	ldr	r3, [r4, #52]	; 0x34
    2206:	1a52      	subs	r2, r2, r1
    2208:	2b00      	cmp	r3, #0
    220a:	d001      	beq.n	2210 <__sflush_r+0x70>
    220c:	6c27      	ldr	r7, [r4, #64]	; 0x40
    220e:	1bd2      	subs	r2, r2, r7
    2210:	1c28      	adds	r0, r5, #0
    2212:	6a21      	ldr	r1, [r4, #32]
    2214:	2300      	movs	r3, #0
    2216:	6ae7      	ldr	r7, [r4, #44]	; 0x2c
    2218:	47b8      	blx	r7
    221a:	89a2      	ldrh	r2, [r4, #12]
    221c:	1c41      	adds	r1, r0, #1
    221e:	d106      	bne.n	222e <__sflush_r+0x8e>
    2220:	682b      	ldr	r3, [r5, #0]
    2222:	2b00      	cmp	r3, #0
    2224:	d003      	beq.n	222e <__sflush_r+0x8e>
    2226:	2b1d      	cmp	r3, #29
    2228:	d001      	beq.n	222e <__sflush_r+0x8e>
    222a:	2b16      	cmp	r3, #22
    222c:	d119      	bne.n	2262 <__sflush_r+0xc2>
    222e:	2300      	movs	r3, #0
    2230:	6063      	str	r3, [r4, #4]
    2232:	6923      	ldr	r3, [r4, #16]
    2234:	6023      	str	r3, [r4, #0]
    2236:	04d7      	lsls	r7, r2, #19
    2238:	d505      	bpl.n	2246 <__sflush_r+0xa6>
    223a:	1c41      	adds	r1, r0, #1
    223c:	d102      	bne.n	2244 <__sflush_r+0xa4>
    223e:	682a      	ldr	r2, [r5, #0]
    2240:	2a00      	cmp	r2, #0
    2242:	d100      	bne.n	2246 <__sflush_r+0xa6>
    2244:	6560      	str	r0, [r4, #84]	; 0x54
    2246:	6b61      	ldr	r1, [r4, #52]	; 0x34
    2248:	602e      	str	r6, [r5, #0]
    224a:	2900      	cmp	r1, #0
    224c:	d0cf      	beq.n	21ee <__sflush_r+0x4e>
    224e:	1c23      	adds	r3, r4, #0
    2250:	3344      	adds	r3, #68	; 0x44
    2252:	4299      	cmp	r1, r3
    2254:	d002      	beq.n	225c <__sflush_r+0xbc>
    2256:	1c28      	adds	r0, r5, #0
    2258:	f000 f994 	bl	2584 <_free_r>
    225c:	2000      	movs	r0, #0
    225e:	6360      	str	r0, [r4, #52]	; 0x34
    2260:	e026      	b.n	22b0 <__sflush_r+0x110>
    2262:	2340      	movs	r3, #64	; 0x40
    2264:	431a      	orrs	r2, r3
    2266:	81a2      	strh	r2, [r4, #12]
    2268:	e022      	b.n	22b0 <__sflush_r+0x110>
    226a:	6926      	ldr	r6, [r4, #16]
    226c:	2e00      	cmp	r6, #0
    226e:	d0be      	beq.n	21ee <__sflush_r+0x4e>
    2270:	6827      	ldr	r7, [r4, #0]
    2272:	2200      	movs	r2, #0
    2274:	1bbf      	subs	r7, r7, r6
    2276:	9701      	str	r7, [sp, #4]
    2278:	6026      	str	r6, [r4, #0]
    227a:	0799      	lsls	r1, r3, #30
    227c:	d100      	bne.n	2280 <__sflush_r+0xe0>
    227e:	6962      	ldr	r2, [r4, #20]
    2280:	60a2      	str	r2, [r4, #8]
    2282:	9f01      	ldr	r7, [sp, #4]
    2284:	2f00      	cmp	r7, #0
    2286:	ddb2      	ble.n	21ee <__sflush_r+0x4e>
    2288:	1c28      	adds	r0, r5, #0
    228a:	6a21      	ldr	r1, [r4, #32]
    228c:	1c32      	adds	r2, r6, #0
    228e:	9b01      	ldr	r3, [sp, #4]
    2290:	6aa7      	ldr	r7, [r4, #40]	; 0x28
    2292:	47b8      	blx	r7
    2294:	2800      	cmp	r0, #0
    2296:	dc06      	bgt.n	22a6 <__sflush_r+0x106>
    2298:	89a3      	ldrh	r3, [r4, #12]
    229a:	2240      	movs	r2, #64	; 0x40
    229c:	4313      	orrs	r3, r2
    229e:	2001      	movs	r0, #1
    22a0:	81a3      	strh	r3, [r4, #12]
    22a2:	4240      	negs	r0, r0
    22a4:	e004      	b.n	22b0 <__sflush_r+0x110>
    22a6:	9f01      	ldr	r7, [sp, #4]
    22a8:	1836      	adds	r6, r6, r0
    22aa:	1a3f      	subs	r7, r7, r0
    22ac:	9701      	str	r7, [sp, #4]
    22ae:	e7e8      	b.n	2282 <__sflush_r+0xe2>
    22b0:	bdfe      	pop	{r1, r2, r3, r4, r5, r6, r7, pc}
	...

000022b4 <_fflush_r>:
    22b4:	690a      	ldr	r2, [r1, #16]
    22b6:	b538      	push	{r3, r4, r5, lr}
    22b8:	1c05      	adds	r5, r0, #0
    22ba:	1c0c      	adds	r4, r1, #0
    22bc:	2a00      	cmp	r2, #0
    22be:	d101      	bne.n	22c4 <_fflush_r+0x10>
    22c0:	2000      	movs	r0, #0
    22c2:	e01c      	b.n	22fe <_fflush_r+0x4a>
    22c4:	2800      	cmp	r0, #0
    22c6:	d004      	beq.n	22d2 <_fflush_r+0x1e>
    22c8:	6983      	ldr	r3, [r0, #24]
    22ca:	2b00      	cmp	r3, #0
    22cc:	d101      	bne.n	22d2 <_fflush_r+0x1e>
    22ce:	f000 f885 	bl	23dc <__sinit>
    22d2:	4b0b      	ldr	r3, [pc, #44]	; (2300 <_fflush_r+0x4c>)
    22d4:	429c      	cmp	r4, r3
    22d6:	d101      	bne.n	22dc <_fflush_r+0x28>
    22d8:	686c      	ldr	r4, [r5, #4]
    22da:	e008      	b.n	22ee <_fflush_r+0x3a>
    22dc:	4b09      	ldr	r3, [pc, #36]	; (2304 <_fflush_r+0x50>)
    22de:	429c      	cmp	r4, r3
    22e0:	d101      	bne.n	22e6 <_fflush_r+0x32>
    22e2:	68ac      	ldr	r4, [r5, #8]
    22e4:	e003      	b.n	22ee <_fflush_r+0x3a>
    22e6:	4b08      	ldr	r3, [pc, #32]	; (2308 <_fflush_r+0x54>)
    22e8:	429c      	cmp	r4, r3
    22ea:	d100      	bne.n	22ee <_fflush_r+0x3a>
    22ec:	68ec      	ldr	r4, [r5, #12]
    22ee:	220c      	movs	r2, #12
    22f0:	5ea3      	ldrsh	r3, [r4, r2]
    22f2:	2b00      	cmp	r3, #0
    22f4:	d0e4      	beq.n	22c0 <_fflush_r+0xc>
    22f6:	1c28      	adds	r0, r5, #0
    22f8:	1c21      	adds	r1, r4, #0
    22fa:	f7ff ff51 	bl	21a0 <__sflush_r>
    22fe:	bd38      	pop	{r3, r4, r5, pc}
    2300:	00008c34 	andeq	r8, r0, r4, lsr ip
    2304:	00008c54 	andeq	r8, r0, r4, asr ip
    2308:	00008c74 	andeq	r8, r0, r4, ror ip

0000230c <fflush>:
    230c:	b508      	push	{r3, lr}
    230e:	1e01      	subs	r1, r0, #0
    2310:	d105      	bne.n	231e <fflush+0x12>
    2312:	4b05      	ldr	r3, [pc, #20]	; (2328 <fflush+0x1c>)
    2314:	4905      	ldr	r1, [pc, #20]	; (232c <fflush+0x20>)
    2316:	6818      	ldr	r0, [r3, #0]
    2318:	f000 f8d0 	bl	24bc <_fwalk_reent>
    231c:	e003      	b.n	2326 <fflush+0x1a>
    231e:	4b04      	ldr	r3, [pc, #16]	; (2330 <fflush+0x24>)
    2320:	6818      	ldr	r0, [r3, #0]
    2322:	f7ff ffc7 	bl	22b4 <_fflush_r>
    2326:	bd08      	pop	{r3, pc}
    2328:	00008c98 	muleq	r0, r8, ip
    232c:	000022b5 			; <UNDEFINED> instruction: 0x000022b5
    2330:	1ffff138 	svcne	0x00fff138

00002334 <_cleanup_r>:
    2334:	b5f8      	push	{r3, r4, r5, r6, r7, lr}
    2336:	1c04      	adds	r4, r0, #0
    2338:	1c07      	adds	r7, r0, #0
    233a:	3448      	adds	r4, #72	; 0x48
    233c:	2c00      	cmp	r4, #0
    233e:	d012      	beq.n	2366 <_cleanup_r+0x32>
    2340:	68a5      	ldr	r5, [r4, #8]
    2342:	6866      	ldr	r6, [r4, #4]
    2344:	3e01      	subs	r6, #1
    2346:	d40c      	bmi.n	2362 <_cleanup_r+0x2e>
    2348:	89ab      	ldrh	r3, [r5, #12]
    234a:	2b01      	cmp	r3, #1
    234c:	d907      	bls.n	235e <_cleanup_r+0x2a>
    234e:	220e      	movs	r2, #14
    2350:	5eab      	ldrsh	r3, [r5, r2]
    2352:	3301      	adds	r3, #1
    2354:	d003      	beq.n	235e <_cleanup_r+0x2a>
    2356:	1c38      	adds	r0, r7, #0
    2358:	1c29      	adds	r1, r5, #0
    235a:	f7ff ffab 	bl	22b4 <_fflush_r>
    235e:	3568      	adds	r5, #104	; 0x68
    2360:	e7f0      	b.n	2344 <_cleanup_r+0x10>
    2362:	6824      	ldr	r4, [r4, #0]
    2364:	e7ea      	b.n	233c <_cleanup_r+0x8>
    2366:	bdf8      	pop	{r3, r4, r5, r6, r7, pc}

00002368 <std.isra.0>:
    2368:	2300      	movs	r3, #0
    236a:	b510      	push	{r4, lr}
    236c:	1c04      	adds	r4, r0, #0
    236e:	6003      	str	r3, [r0, #0]
    2370:	6043      	str	r3, [r0, #4]
    2372:	6083      	str	r3, [r0, #8]
    2374:	8181      	strh	r1, [r0, #12]
    2376:	6643      	str	r3, [r0, #100]	; 0x64
    2378:	81c2      	strh	r2, [r0, #14]
    237a:	6103      	str	r3, [r0, #16]
    237c:	6143      	str	r3, [r0, #20]
    237e:	6183      	str	r3, [r0, #24]
    2380:	1c19      	adds	r1, r3, #0
    2382:	2208      	movs	r2, #8
    2384:	305c      	adds	r0, #92	; 0x5c
    2386:	f000 f8f4 	bl	2572 <memset>
    238a:	4b05      	ldr	r3, [pc, #20]	; (23a0 <std.isra.0+0x38>)
    238c:	6224      	str	r4, [r4, #32]
    238e:	6263      	str	r3, [r4, #36]	; 0x24
    2390:	4b04      	ldr	r3, [pc, #16]	; (23a4 <std.isra.0+0x3c>)
    2392:	62a3      	str	r3, [r4, #40]	; 0x28
    2394:	4b04      	ldr	r3, [pc, #16]	; (23a8 <std.isra.0+0x40>)
    2396:	62e3      	str	r3, [r4, #44]	; 0x2c
    2398:	4b04      	ldr	r3, [pc, #16]	; (23ac <std.isra.0+0x44>)
    239a:	6323      	str	r3, [r4, #48]	; 0x30
    239c:	bd10      	pop	{r4, pc}
    239e:	46c0      	nop			; (mov r8, r8)
    23a0:	000027ed 	andeq	r2, r0, sp, ror #15
    23a4:	00002815 	andeq	r2, r0, r5, lsl r8
    23a8:	0000284d 	andeq	r2, r0, sp, asr #16
    23ac:	00002879 	andeq	r2, r0, r9, ror r8

000023b0 <__sfmoreglue>:
    23b0:	b570      	push	{r4, r5, r6, lr}
    23b2:	1e4b      	subs	r3, r1, #1
    23b4:	2568      	movs	r5, #104	; 0x68
    23b6:	435d      	muls	r5, r3
    23b8:	1c0e      	adds	r6, r1, #0
    23ba:	1c29      	adds	r1, r5, #0
    23bc:	3174      	adds	r1, #116	; 0x74
    23be:	f000 f929 	bl	2614 <_malloc_r>
    23c2:	1e04      	subs	r4, r0, #0
    23c4:	d008      	beq.n	23d8 <__sfmoreglue+0x28>
    23c6:	2100      	movs	r1, #0
    23c8:	6001      	str	r1, [r0, #0]
    23ca:	6046      	str	r6, [r0, #4]
    23cc:	1c2a      	adds	r2, r5, #0
    23ce:	300c      	adds	r0, #12
    23d0:	60a0      	str	r0, [r4, #8]
    23d2:	3268      	adds	r2, #104	; 0x68
    23d4:	f000 f8cd 	bl	2572 <memset>
    23d8:	1c20      	adds	r0, r4, #0
    23da:	bd70      	pop	{r4, r5, r6, pc}

000023dc <__sinit>:
    23dc:	6983      	ldr	r3, [r0, #24]
    23de:	b513      	push	{r0, r1, r4, lr}
    23e0:	1c04      	adds	r4, r0, #0
    23e2:	2b00      	cmp	r3, #0
    23e4:	d127      	bne.n	2436 <__sinit+0x5a>
    23e6:	6483      	str	r3, [r0, #72]	; 0x48
    23e8:	64c3      	str	r3, [r0, #76]	; 0x4c
    23ea:	6503      	str	r3, [r0, #80]	; 0x50
    23ec:	4b12      	ldr	r3, [pc, #72]	; (2438 <__sinit+0x5c>)
    23ee:	4a13      	ldr	r2, [pc, #76]	; (243c <__sinit+0x60>)
    23f0:	681b      	ldr	r3, [r3, #0]
    23f2:	6282      	str	r2, [r0, #40]	; 0x28
    23f4:	4298      	cmp	r0, r3
    23f6:	d101      	bne.n	23fc <__sinit+0x20>
    23f8:	2301      	movs	r3, #1
    23fa:	6183      	str	r3, [r0, #24]
    23fc:	1c20      	adds	r0, r4, #0
    23fe:	f000 f81f 	bl	2440 <__sfp>
    2402:	6060      	str	r0, [r4, #4]
    2404:	1c20      	adds	r0, r4, #0
    2406:	f000 f81b 	bl	2440 <__sfp>
    240a:	60a0      	str	r0, [r4, #8]
    240c:	1c20      	adds	r0, r4, #0
    240e:	f000 f817 	bl	2440 <__sfp>
    2412:	2104      	movs	r1, #4
    2414:	60e0      	str	r0, [r4, #12]
    2416:	2200      	movs	r2, #0
    2418:	6860      	ldr	r0, [r4, #4]
    241a:	f7ff ffa5 	bl	2368 <std.isra.0>
    241e:	68a0      	ldr	r0, [r4, #8]
    2420:	2109      	movs	r1, #9
    2422:	2201      	movs	r2, #1
    2424:	f7ff ffa0 	bl	2368 <std.isra.0>
    2428:	68e0      	ldr	r0, [r4, #12]
    242a:	2112      	movs	r1, #18
    242c:	2202      	movs	r2, #2
    242e:	f7ff ff9b 	bl	2368 <std.isra.0>
    2432:	2301      	movs	r3, #1
    2434:	61a3      	str	r3, [r4, #24]
    2436:	bd13      	pop	{r0, r1, r4, pc}
    2438:	00008c98 	muleq	r0, r8, ip
    243c:	00002335 	andeq	r2, r0, r5, lsr r3

00002440 <__sfp>:
    2440:	b5f8      	push	{r3, r4, r5, r6, r7, lr}
    2442:	4b1d      	ldr	r3, [pc, #116]	; (24b8 <__sfp+0x78>)
    2444:	1c07      	adds	r7, r0, #0
    2446:	681e      	ldr	r6, [r3, #0]
    2448:	69b2      	ldr	r2, [r6, #24]
    244a:	2a00      	cmp	r2, #0
    244c:	d102      	bne.n	2454 <__sfp+0x14>
    244e:	1c30      	adds	r0, r6, #0
    2450:	f7ff ffc4 	bl	23dc <__sinit>
    2454:	3648      	adds	r6, #72	; 0x48
    2456:	68b4      	ldr	r4, [r6, #8]
    2458:	6873      	ldr	r3, [r6, #4]
    245a:	3b01      	subs	r3, #1
    245c:	d405      	bmi.n	246a <__sfp+0x2a>
    245e:	220c      	movs	r2, #12
    2460:	5ea5      	ldrsh	r5, [r4, r2]
    2462:	2d00      	cmp	r5, #0
    2464:	d010      	beq.n	2488 <__sfp+0x48>
    2466:	3468      	adds	r4, #104	; 0x68
    2468:	e7f7      	b.n	245a <__sfp+0x1a>
    246a:	6833      	ldr	r3, [r6, #0]
    246c:	2b00      	cmp	r3, #0
    246e:	d106      	bne.n	247e <__sfp+0x3e>
    2470:	1c38      	adds	r0, r7, #0
    2472:	2104      	movs	r1, #4
    2474:	f7ff ff9c 	bl	23b0 <__sfmoreglue>
    2478:	6030      	str	r0, [r6, #0]
    247a:	2800      	cmp	r0, #0
    247c:	d001      	beq.n	2482 <__sfp+0x42>
    247e:	6836      	ldr	r6, [r6, #0]
    2480:	e7e9      	b.n	2456 <__sfp+0x16>
    2482:	230c      	movs	r3, #12
    2484:	603b      	str	r3, [r7, #0]
    2486:	e016      	b.n	24b6 <__sfp+0x76>
    2488:	2301      	movs	r3, #1
    248a:	425b      	negs	r3, r3
    248c:	81e3      	strh	r3, [r4, #14]
    248e:	1c20      	adds	r0, r4, #0
    2490:	2301      	movs	r3, #1
    2492:	81a3      	strh	r3, [r4, #12]
    2494:	6665      	str	r5, [r4, #100]	; 0x64
    2496:	6025      	str	r5, [r4, #0]
    2498:	60a5      	str	r5, [r4, #8]
    249a:	6065      	str	r5, [r4, #4]
    249c:	6125      	str	r5, [r4, #16]
    249e:	6165      	str	r5, [r4, #20]
    24a0:	61a5      	str	r5, [r4, #24]
    24a2:	305c      	adds	r0, #92	; 0x5c
    24a4:	1c29      	adds	r1, r5, #0
    24a6:	2208      	movs	r2, #8
    24a8:	f000 f863 	bl	2572 <memset>
    24ac:	6365      	str	r5, [r4, #52]	; 0x34
    24ae:	63a5      	str	r5, [r4, #56]	; 0x38
    24b0:	64a5      	str	r5, [r4, #72]	; 0x48
    24b2:	64e5      	str	r5, [r4, #76]	; 0x4c
    24b4:	1c20      	adds	r0, r4, #0
    24b6:	bdf8      	pop	{r3, r4, r5, r6, r7, pc}
    24b8:	00008c98 	muleq	r0, r8, ip

000024bc <_fwalk_reent>:
    24bc:	b5f7      	push	{r0, r1, r2, r4, r5, r6, r7, lr}
    24be:	1c04      	adds	r4, r0, #0
    24c0:	1c07      	adds	r7, r0, #0
    24c2:	9101      	str	r1, [sp, #4]
    24c4:	3448      	adds	r4, #72	; 0x48
    24c6:	2600      	movs	r6, #0
    24c8:	2c00      	cmp	r4, #0
    24ca:	d016      	beq.n	24fa <_fwalk_reent+0x3e>
    24cc:	6862      	ldr	r2, [r4, #4]
    24ce:	68a5      	ldr	r5, [r4, #8]
    24d0:	9200      	str	r2, [sp, #0]
    24d2:	9a00      	ldr	r2, [sp, #0]
    24d4:	3a01      	subs	r2, #1
    24d6:	9200      	str	r2, [sp, #0]
    24d8:	d40d      	bmi.n	24f6 <_fwalk_reent+0x3a>
    24da:	89ab      	ldrh	r3, [r5, #12]
    24dc:	2b01      	cmp	r3, #1
    24de:	d908      	bls.n	24f2 <_fwalk_reent+0x36>
    24e0:	220e      	movs	r2, #14
    24e2:	5eab      	ldrsh	r3, [r5, r2]
    24e4:	3301      	adds	r3, #1
    24e6:	d004      	beq.n	24f2 <_fwalk_reent+0x36>
    24e8:	1c38      	adds	r0, r7, #0
    24ea:	1c29      	adds	r1, r5, #0
    24ec:	9b01      	ldr	r3, [sp, #4]
    24ee:	4798      	blx	r3
    24f0:	4306      	orrs	r6, r0
    24f2:	3568      	adds	r5, #104	; 0x68
    24f4:	e7ed      	b.n	24d2 <_fwalk_reent+0x16>
    24f6:	6824      	ldr	r4, [r4, #0]
    24f8:	e7e6      	b.n	24c8 <_fwalk_reent+0xc>
    24fa:	1c30      	adds	r0, r6, #0
    24fc:	bdfe      	pop	{r1, r2, r3, r4, r5, r6, r7, pc}
	...

00002500 <__libc_init_array>:
    2500:	b570      	push	{r4, r5, r6, lr}
    2502:	4b0e      	ldr	r3, [pc, #56]	; (253c <__libc_init_array+0x3c>)
    2504:	4d0e      	ldr	r5, [pc, #56]	; (2540 <__libc_init_array+0x40>)
    2506:	2400      	movs	r4, #0
    2508:	1aed      	subs	r5, r5, r3
    250a:	10ad      	asrs	r5, r5, #2
    250c:	1c1e      	adds	r6, r3, #0
    250e:	42ac      	cmp	r4, r5
    2510:	d004      	beq.n	251c <__libc_init_array+0x1c>
    2512:	00a3      	lsls	r3, r4, #2
    2514:	58f3      	ldr	r3, [r6, r3]
    2516:	4798      	blx	r3
    2518:	3401      	adds	r4, #1
    251a:	e7f8      	b.n	250e <__libc_init_array+0xe>
    251c:	f006 f908 	bl	8730 <_init>
    2520:	4b08      	ldr	r3, [pc, #32]	; (2544 <__libc_init_array+0x44>)
    2522:	4d09      	ldr	r5, [pc, #36]	; (2548 <__libc_init_array+0x48>)
    2524:	2400      	movs	r4, #0
    2526:	1aed      	subs	r5, r5, r3
    2528:	10ad      	asrs	r5, r5, #2
    252a:	1c1e      	adds	r6, r3, #0
    252c:	42ac      	cmp	r4, r5
    252e:	d004      	beq.n	253a <__libc_init_array+0x3a>
    2530:	00a3      	lsls	r3, r4, #2
    2532:	58f3      	ldr	r3, [r6, r3]
    2534:	4798      	blx	r3
    2536:	3401      	adds	r4, #1
    2538:	e7f8      	b.n	252c <__libc_init_array+0x2c>
    253a:	bd70      	pop	{r4, r5, r6, pc}
    253c:	1ffff178 	svcne	0x00fff178
    2540:	1ffff178 	svcne	0x00fff178
    2544:	1ffff178 	svcne	0x00fff178
    2548:	1ffff17c 	svcne	0x00fff17c

0000254c <malloc>:
    254c:	b508      	push	{r3, lr}
    254e:	4b03      	ldr	r3, [pc, #12]	; (255c <malloc+0x10>)
    2550:	1c01      	adds	r1, r0, #0
    2552:	6818      	ldr	r0, [r3, #0]
    2554:	f000 f85e 	bl	2614 <_malloc_r>
    2558:	bd08      	pop	{r3, pc}
    255a:	46c0      	nop			; (mov r8, r8)
    255c:	1ffff138 	svcne	0x00fff138

00002560 <memcpy>:
    2560:	b510      	push	{r4, lr}
    2562:	2300      	movs	r3, #0
    2564:	4293      	cmp	r3, r2
    2566:	d003      	beq.n	2570 <memcpy+0x10>
    2568:	5ccc      	ldrb	r4, [r1, r3]
    256a:	54c4      	strb	r4, [r0, r3]
    256c:	3301      	adds	r3, #1
    256e:	e7f9      	b.n	2564 <memcpy+0x4>
    2570:	bd10      	pop	{r4, pc}

00002572 <memset>:
    2572:	1c03      	adds	r3, r0, #0
    2574:	1882      	adds	r2, r0, r2
    2576:	4293      	cmp	r3, r2
    2578:	d002      	beq.n	2580 <memset+0xe>
    257a:	7019      	strb	r1, [r3, #0]
    257c:	3301      	adds	r3, #1
    257e:	e7fa      	b.n	2576 <memset+0x4>
    2580:	4770      	bx	lr
	...

00002584 <_free_r>:
    2584:	b530      	push	{r4, r5, lr}
    2586:	2900      	cmp	r1, #0
    2588:	d040      	beq.n	260c <_free_r+0x88>
    258a:	3904      	subs	r1, #4
    258c:	680b      	ldr	r3, [r1, #0]
    258e:	2b00      	cmp	r3, #0
    2590:	da00      	bge.n	2594 <_free_r+0x10>
    2592:	18c9      	adds	r1, r1, r3
    2594:	4a1e      	ldr	r2, [pc, #120]	; (2610 <_free_r+0x8c>)
    2596:	6813      	ldr	r3, [r2, #0]
    2598:	1c14      	adds	r4, r2, #0
    259a:	2b00      	cmp	r3, #0
    259c:	d102      	bne.n	25a4 <_free_r+0x20>
    259e:	604b      	str	r3, [r1, #4]
    25a0:	6011      	str	r1, [r2, #0]
    25a2:	e033      	b.n	260c <_free_r+0x88>
    25a4:	4299      	cmp	r1, r3
    25a6:	d20f      	bcs.n	25c8 <_free_r+0x44>
    25a8:	6808      	ldr	r0, [r1, #0]
    25aa:	180a      	adds	r2, r1, r0
    25ac:	429a      	cmp	r2, r3
    25ae:	d105      	bne.n	25bc <_free_r+0x38>
    25b0:	6813      	ldr	r3, [r2, #0]
    25b2:	6852      	ldr	r2, [r2, #4]
    25b4:	18c0      	adds	r0, r0, r3
    25b6:	6008      	str	r0, [r1, #0]
    25b8:	604a      	str	r2, [r1, #4]
    25ba:	e000      	b.n	25be <_free_r+0x3a>
    25bc:	604b      	str	r3, [r1, #4]
    25be:	6021      	str	r1, [r4, #0]
    25c0:	e024      	b.n	260c <_free_r+0x88>
    25c2:	428a      	cmp	r2, r1
    25c4:	d803      	bhi.n	25ce <_free_r+0x4a>
    25c6:	1c13      	adds	r3, r2, #0
    25c8:	685a      	ldr	r2, [r3, #4]
    25ca:	2a00      	cmp	r2, #0
    25cc:	d1f9      	bne.n	25c2 <_free_r+0x3e>
    25ce:	681d      	ldr	r5, [r3, #0]
    25d0:	195c      	adds	r4, r3, r5
    25d2:	428c      	cmp	r4, r1
    25d4:	d10b      	bne.n	25ee <_free_r+0x6a>
    25d6:	6809      	ldr	r1, [r1, #0]
    25d8:	1869      	adds	r1, r5, r1
    25da:	1858      	adds	r0, r3, r1
    25dc:	6019      	str	r1, [r3, #0]
    25de:	4290      	cmp	r0, r2
    25e0:	d114      	bne.n	260c <_free_r+0x88>
    25e2:	6814      	ldr	r4, [r2, #0]
    25e4:	6852      	ldr	r2, [r2, #4]
    25e6:	1909      	adds	r1, r1, r4
    25e8:	6019      	str	r1, [r3, #0]
    25ea:	605a      	str	r2, [r3, #4]
    25ec:	e00e      	b.n	260c <_free_r+0x88>
    25ee:	428c      	cmp	r4, r1
    25f0:	d902      	bls.n	25f8 <_free_r+0x74>
    25f2:	230c      	movs	r3, #12
    25f4:	6003      	str	r3, [r0, #0]
    25f6:	e009      	b.n	260c <_free_r+0x88>
    25f8:	6808      	ldr	r0, [r1, #0]
    25fa:	180c      	adds	r4, r1, r0
    25fc:	4294      	cmp	r4, r2
    25fe:	d103      	bne.n	2608 <_free_r+0x84>
    2600:	6814      	ldr	r4, [r2, #0]
    2602:	6852      	ldr	r2, [r2, #4]
    2604:	1900      	adds	r0, r0, r4
    2606:	6008      	str	r0, [r1, #0]
    2608:	604a      	str	r2, [r1, #4]
    260a:	6059      	str	r1, [r3, #4]
    260c:	bd30      	pop	{r4, r5, pc}
    260e:	46c0      	nop			; (mov r8, r8)
    2610:	1ffff418 	svcne	0x00fff418

00002614 <_malloc_r>:
    2614:	b570      	push	{r4, r5, r6, lr}
    2616:	2303      	movs	r3, #3
    2618:	1ccd      	adds	r5, r1, #3
    261a:	439d      	bics	r5, r3
    261c:	3508      	adds	r5, #8
    261e:	1c06      	adds	r6, r0, #0
    2620:	2d0c      	cmp	r5, #12
    2622:	d201      	bcs.n	2628 <_malloc_r+0x14>
    2624:	250c      	movs	r5, #12
    2626:	e001      	b.n	262c <_malloc_r+0x18>
    2628:	2d00      	cmp	r5, #0
    262a:	db3f      	blt.n	26ac <_malloc_r+0x98>
    262c:	428d      	cmp	r5, r1
    262e:	d33d      	bcc.n	26ac <_malloc_r+0x98>
    2630:	4b20      	ldr	r3, [pc, #128]	; (26b4 <_malloc_r+0xa0>)
    2632:	681c      	ldr	r4, [r3, #0]
    2634:	1c1a      	adds	r2, r3, #0
    2636:	1c21      	adds	r1, r4, #0
    2638:	2900      	cmp	r1, #0
    263a:	d013      	beq.n	2664 <_malloc_r+0x50>
    263c:	6808      	ldr	r0, [r1, #0]
    263e:	1b43      	subs	r3, r0, r5
    2640:	d40d      	bmi.n	265e <_malloc_r+0x4a>
    2642:	2b0b      	cmp	r3, #11
    2644:	d902      	bls.n	264c <_malloc_r+0x38>
    2646:	600b      	str	r3, [r1, #0]
    2648:	18cc      	adds	r4, r1, r3
    264a:	e01e      	b.n	268a <_malloc_r+0x76>
    264c:	428c      	cmp	r4, r1
    264e:	d102      	bne.n	2656 <_malloc_r+0x42>
    2650:	6863      	ldr	r3, [r4, #4]
    2652:	6013      	str	r3, [r2, #0]
    2654:	e01a      	b.n	268c <_malloc_r+0x78>
    2656:	6848      	ldr	r0, [r1, #4]
    2658:	6060      	str	r0, [r4, #4]
    265a:	1c0c      	adds	r4, r1, #0
    265c:	e016      	b.n	268c <_malloc_r+0x78>
    265e:	1c0c      	adds	r4, r1, #0
    2660:	6849      	ldr	r1, [r1, #4]
    2662:	e7e9      	b.n	2638 <_malloc_r+0x24>
    2664:	4c14      	ldr	r4, [pc, #80]	; (26b8 <_malloc_r+0xa4>)
    2666:	6820      	ldr	r0, [r4, #0]
    2668:	2800      	cmp	r0, #0
    266a:	d103      	bne.n	2674 <_malloc_r+0x60>
    266c:	1c30      	adds	r0, r6, #0
    266e:	f000 f8ab 	bl	27c8 <_sbrk_r>
    2672:	6020      	str	r0, [r4, #0]
    2674:	1c30      	adds	r0, r6, #0
    2676:	1c29      	adds	r1, r5, #0
    2678:	f000 f8a6 	bl	27c8 <_sbrk_r>
    267c:	1c43      	adds	r3, r0, #1
    267e:	d015      	beq.n	26ac <_malloc_r+0x98>
    2680:	1cc4      	adds	r4, r0, #3
    2682:	2303      	movs	r3, #3
    2684:	439c      	bics	r4, r3
    2686:	4284      	cmp	r4, r0
    2688:	d10a      	bne.n	26a0 <_malloc_r+0x8c>
    268a:	6025      	str	r5, [r4, #0]
    268c:	1c20      	adds	r0, r4, #0
    268e:	300b      	adds	r0, #11
    2690:	2207      	movs	r2, #7
    2692:	1d23      	adds	r3, r4, #4
    2694:	4390      	bics	r0, r2
    2696:	1ac3      	subs	r3, r0, r3
    2698:	d00b      	beq.n	26b2 <_malloc_r+0x9e>
    269a:	425a      	negs	r2, r3
    269c:	50e2      	str	r2, [r4, r3]
    269e:	e008      	b.n	26b2 <_malloc_r+0x9e>
    26a0:	1a21      	subs	r1, r4, r0
    26a2:	1c30      	adds	r0, r6, #0
    26a4:	f000 f890 	bl	27c8 <_sbrk_r>
    26a8:	3001      	adds	r0, #1
    26aa:	d1ee      	bne.n	268a <_malloc_r+0x76>
    26ac:	230c      	movs	r3, #12
    26ae:	6033      	str	r3, [r6, #0]
    26b0:	2000      	movs	r0, #0
    26b2:	bd70      	pop	{r4, r5, r6, pc}
    26b4:	1ffff418 	svcne	0x00fff418
    26b8:	1ffff414 	svcne	0x00fff414

000026bc <iprintf>:
    26bc:	b40f      	push	{r0, r1, r2, r3}
    26be:	4b0b      	ldr	r3, [pc, #44]	; (26ec <iprintf+0x30>)
    26c0:	b513      	push	{r0, r1, r4, lr}
    26c2:	681c      	ldr	r4, [r3, #0]
    26c4:	2c00      	cmp	r4, #0
    26c6:	d005      	beq.n	26d4 <iprintf+0x18>
    26c8:	69a3      	ldr	r3, [r4, #24]
    26ca:	2b00      	cmp	r3, #0
    26cc:	d102      	bne.n	26d4 <iprintf+0x18>
    26ce:	1c20      	adds	r0, r4, #0
    26d0:	f7ff fe84 	bl	23dc <__sinit>
    26d4:	ab05      	add	r3, sp, #20
    26d6:	68a1      	ldr	r1, [r4, #8]
    26d8:	1c20      	adds	r0, r4, #0
    26da:	9a04      	ldr	r2, [sp, #16]
    26dc:	9301      	str	r3, [sp, #4]
    26de:	f000 f915 	bl	290c <_vfiprintf_r>
    26e2:	bc16      	pop	{r1, r2, r4}
    26e4:	bc08      	pop	{r3}
    26e6:	b004      	add	sp, #16
    26e8:	4718      	bx	r3
    26ea:	46c0      	nop			; (mov r8, r8)
    26ec:	1ffff138 	svcne	0x00fff138

000026f0 <_puts_r>:
    26f0:	b570      	push	{r4, r5, r6, lr}
    26f2:	1c05      	adds	r5, r0, #0
    26f4:	1c0e      	adds	r6, r1, #0
    26f6:	2800      	cmp	r0, #0
    26f8:	d004      	beq.n	2704 <_puts_r+0x14>
    26fa:	6982      	ldr	r2, [r0, #24]
    26fc:	2a00      	cmp	r2, #0
    26fe:	d101      	bne.n	2704 <_puts_r+0x14>
    2700:	f7ff fe6c 	bl	23dc <__sinit>
    2704:	68ac      	ldr	r4, [r5, #8]
    2706:	89a3      	ldrh	r3, [r4, #12]
    2708:	071a      	lsls	r2, r3, #28
    270a:	d502      	bpl.n	2712 <_puts_r+0x22>
    270c:	6923      	ldr	r3, [r4, #16]
    270e:	2b00      	cmp	r3, #0
    2710:	d119      	bne.n	2746 <_puts_r+0x56>
    2712:	1c28      	adds	r0, r5, #0
    2714:	1c21      	adds	r1, r4, #0
    2716:	f001 f8c1 	bl	389c <__swsetup_r>
    271a:	2800      	cmp	r0, #0
    271c:	d013      	beq.n	2746 <_puts_r+0x56>
    271e:	2001      	movs	r0, #1
    2720:	4240      	negs	r0, r0
    2722:	e045      	b.n	27b0 <_puts_r+0xc0>
    2724:	7831      	ldrb	r1, [r6, #0]
    2726:	2b00      	cmp	r3, #0
    2728:	da1b      	bge.n	2762 <_puts_r+0x72>
    272a:	69a2      	ldr	r2, [r4, #24]
    272c:	4293      	cmp	r3, r2
    272e:	da11      	bge.n	2754 <_puts_r+0x64>
    2730:	1c28      	adds	r0, r5, #0
    2732:	1c22      	adds	r2, r4, #0
    2734:	f001 f846 	bl	37c4 <__swbuf_r>
    2738:	3001      	adds	r0, #1
    273a:	4243      	negs	r3, r0
    273c:	4158      	adcs	r0, r3
    273e:	b2c0      	uxtb	r0, r0
    2740:	2800      	cmp	r0, #0
    2742:	d1ec      	bne.n	271e <_puts_r+0x2e>
    2744:	3601      	adds	r6, #1
    2746:	68a3      	ldr	r3, [r4, #8]
    2748:	7832      	ldrb	r2, [r6, #0]
    274a:	3b01      	subs	r3, #1
    274c:	60a3      	str	r3, [r4, #8]
    274e:	2a00      	cmp	r2, #0
    2750:	d1e8      	bne.n	2724 <_puts_r+0x34>
    2752:	e00c      	b.n	276e <_puts_r+0x7e>
    2754:	6823      	ldr	r3, [r4, #0]
    2756:	7019      	strb	r1, [r3, #0]
    2758:	6823      	ldr	r3, [r4, #0]
    275a:	7819      	ldrb	r1, [r3, #0]
    275c:	290a      	cmp	r1, #10
    275e:	d103      	bne.n	2768 <_puts_r+0x78>
    2760:	e7e6      	b.n	2730 <_puts_r+0x40>
    2762:	6822      	ldr	r2, [r4, #0]
    2764:	7011      	strb	r1, [r2, #0]
    2766:	6823      	ldr	r3, [r4, #0]
    2768:	3301      	adds	r3, #1
    276a:	6023      	str	r3, [r4, #0]
    276c:	e7ea      	b.n	2744 <_puts_r+0x54>
    276e:	2b00      	cmp	r3, #0
    2770:	da17      	bge.n	27a2 <_puts_r+0xb2>
    2772:	69a2      	ldr	r2, [r4, #24]
    2774:	4293      	cmp	r3, r2
    2776:	db08      	blt.n	278a <_puts_r+0x9a>
    2778:	6822      	ldr	r2, [r4, #0]
    277a:	230a      	movs	r3, #10
    277c:	7013      	strb	r3, [r2, #0]
    277e:	6823      	ldr	r3, [r4, #0]
    2780:	7819      	ldrb	r1, [r3, #0]
    2782:	290a      	cmp	r1, #10
    2784:	d111      	bne.n	27aa <_puts_r+0xba>
    2786:	1c28      	adds	r0, r5, #0
    2788:	e001      	b.n	278e <_puts_r+0x9e>
    278a:	1c28      	adds	r0, r5, #0
    278c:	210a      	movs	r1, #10
    278e:	1c22      	adds	r2, r4, #0
    2790:	f001 f818 	bl	37c4 <__swbuf_r>
    2794:	3001      	adds	r0, #1
    2796:	4243      	negs	r3, r0
    2798:	4158      	adcs	r0, r3
    279a:	b2c0      	uxtb	r0, r0
    279c:	2800      	cmp	r0, #0
    279e:	d006      	beq.n	27ae <_puts_r+0xbe>
    27a0:	e7bd      	b.n	271e <_puts_r+0x2e>
    27a2:	6822      	ldr	r2, [r4, #0]
    27a4:	230a      	movs	r3, #10
    27a6:	7013      	strb	r3, [r2, #0]
    27a8:	6823      	ldr	r3, [r4, #0]
    27aa:	3301      	adds	r3, #1
    27ac:	6023      	str	r3, [r4, #0]
    27ae:	200a      	movs	r0, #10
    27b0:	bd70      	pop	{r4, r5, r6, pc}
	...

000027b4 <puts>:
    27b4:	b508      	push	{r3, lr}
    27b6:	4b03      	ldr	r3, [pc, #12]	; (27c4 <puts+0x10>)
    27b8:	1c01      	adds	r1, r0, #0
    27ba:	6818      	ldr	r0, [r3, #0]
    27bc:	f7ff ff98 	bl	26f0 <_puts_r>
    27c0:	bd08      	pop	{r3, pc}
    27c2:	46c0      	nop			; (mov r8, r8)
    27c4:	1ffff138 	svcne	0x00fff138

000027c8 <_sbrk_r>:
    27c8:	b538      	push	{r3, r4, r5, lr}
    27ca:	4c07      	ldr	r4, [pc, #28]	; (27e8 <_sbrk_r+0x20>)
    27cc:	2300      	movs	r3, #0
    27ce:	1c05      	adds	r5, r0, #0
    27d0:	1c08      	adds	r0, r1, #0
    27d2:	6023      	str	r3, [r4, #0]
    27d4:	f7fe ff9e 	bl	1714 <_sbrk>
    27d8:	1c43      	adds	r3, r0, #1
    27da:	d103      	bne.n	27e4 <_sbrk_r+0x1c>
    27dc:	6823      	ldr	r3, [r4, #0]
    27de:	2b00      	cmp	r3, #0
    27e0:	d000      	beq.n	27e4 <_sbrk_r+0x1c>
    27e2:	602b      	str	r3, [r5, #0]
    27e4:	bd38      	pop	{r3, r4, r5, pc}
    27e6:	46c0      	nop			; (mov r8, r8)
    27e8:	1ffff424 	svcne	0x00fff424

000027ec <__sread>:
    27ec:	b538      	push	{r3, r4, r5, lr}
    27ee:	1c0c      	adds	r4, r1, #0
    27f0:	250e      	movs	r5, #14
    27f2:	5f49      	ldrsh	r1, [r1, r5]
    27f4:	f002 fbfe 	bl	4ff4 <_read_r>
    27f8:	2800      	cmp	r0, #0
    27fa:	db03      	blt.n	2804 <__sread+0x18>
    27fc:	6d62      	ldr	r2, [r4, #84]	; 0x54
    27fe:	1813      	adds	r3, r2, r0
    2800:	6563      	str	r3, [r4, #84]	; 0x54
    2802:	e003      	b.n	280c <__sread+0x20>
    2804:	89a2      	ldrh	r2, [r4, #12]
    2806:	4b02      	ldr	r3, [pc, #8]	; (2810 <__sread+0x24>)
    2808:	4013      	ands	r3, r2
    280a:	81a3      	strh	r3, [r4, #12]
    280c:	bd38      	pop	{r3, r4, r5, pc}
    280e:	46c0      	nop			; (mov r8, r8)
    2810:	ffffefff 			; <UNDEFINED> instruction: 0xffffefff

00002814 <__swrite>:
    2814:	b5f8      	push	{r3, r4, r5, r6, r7, lr}
    2816:	1c1e      	adds	r6, r3, #0
    2818:	898b      	ldrh	r3, [r1, #12]
    281a:	1c05      	adds	r5, r0, #0
    281c:	1c0c      	adds	r4, r1, #0
    281e:	1c17      	adds	r7, r2, #0
    2820:	05da      	lsls	r2, r3, #23
    2822:	d505      	bpl.n	2830 <__swrite+0x1c>
    2824:	230e      	movs	r3, #14
    2826:	5ec9      	ldrsh	r1, [r1, r3]
    2828:	2200      	movs	r2, #0
    282a:	2302      	movs	r3, #2
    282c:	f001 ff28 	bl	4680 <_lseek_r>
    2830:	89a2      	ldrh	r2, [r4, #12]
    2832:	4b05      	ldr	r3, [pc, #20]	; (2848 <__swrite+0x34>)
    2834:	1c28      	adds	r0, r5, #0
    2836:	4013      	ands	r3, r2
    2838:	81a3      	strh	r3, [r4, #12]
    283a:	220e      	movs	r2, #14
    283c:	5ea1      	ldrsh	r1, [r4, r2]
    283e:	1c33      	adds	r3, r6, #0
    2840:	1c3a      	adds	r2, r7, #0
    2842:	f001 f817 	bl	3874 <_write_r>
    2846:	bdf8      	pop	{r3, r4, r5, r6, r7, pc}
    2848:	ffffefff 			; <UNDEFINED> instruction: 0xffffefff

0000284c <__sseek>:
    284c:	b538      	push	{r3, r4, r5, lr}
    284e:	1c0c      	adds	r4, r1, #0
    2850:	250e      	movs	r5, #14
    2852:	5f49      	ldrsh	r1, [r1, r5]
    2854:	f001 ff14 	bl	4680 <_lseek_r>
    2858:	89a3      	ldrh	r3, [r4, #12]
    285a:	1c42      	adds	r2, r0, #1
    285c:	d103      	bne.n	2866 <__sseek+0x1a>
    285e:	4a05      	ldr	r2, [pc, #20]	; (2874 <__sseek+0x28>)
    2860:	4013      	ands	r3, r2
    2862:	81a3      	strh	r3, [r4, #12]
    2864:	e004      	b.n	2870 <__sseek+0x24>
    2866:	2280      	movs	r2, #128	; 0x80
    2868:	0152      	lsls	r2, r2, #5
    286a:	4313      	orrs	r3, r2
    286c:	81a3      	strh	r3, [r4, #12]
    286e:	6560      	str	r0, [r4, #84]	; 0x54
    2870:	bd38      	pop	{r3, r4, r5, pc}
    2872:	46c0      	nop			; (mov r8, r8)
    2874:	ffffefff 			; <UNDEFINED> instruction: 0xffffefff

00002878 <__sclose>:
    2878:	b508      	push	{r3, lr}
    287a:	230e      	movs	r3, #14
    287c:	5ec9      	ldrsh	r1, [r1, r3]
    287e:	f001 f87f 	bl	3980 <_close_r>
    2882:	bd08      	pop	{r3, pc}

00002884 <strlen>:
    2884:	2300      	movs	r3, #0
    2886:	5cc2      	ldrb	r2, [r0, r3]
    2888:	3301      	adds	r3, #1
    288a:	2a00      	cmp	r2, #0
    288c:	d1fb      	bne.n	2886 <strlen+0x2>
    288e:	1e58      	subs	r0, r3, #1
    2890:	4770      	bx	lr

00002892 <strncmp>:
    2892:	1c03      	adds	r3, r0, #0
    2894:	2000      	movs	r0, #0
    2896:	b510      	push	{r4, lr}
    2898:	4282      	cmp	r2, r0
    289a:	d00f      	beq.n	28bc <strncmp+0x2a>
    289c:	781c      	ldrb	r4, [r3, #0]
    289e:	7808      	ldrb	r0, [r1, #0]
    28a0:	42a0      	cmp	r0, r4
    28a2:	d101      	bne.n	28a8 <strncmp+0x16>
    28a4:	2a01      	cmp	r2, #1
    28a6:	d103      	bne.n	28b0 <strncmp+0x1e>
    28a8:	7818      	ldrb	r0, [r3, #0]
    28aa:	780b      	ldrb	r3, [r1, #0]
    28ac:	1ac0      	subs	r0, r0, r3
    28ae:	e005      	b.n	28bc <strncmp+0x2a>
    28b0:	3a01      	subs	r2, #1
    28b2:	2800      	cmp	r0, #0
    28b4:	d0f8      	beq.n	28a8 <strncmp+0x16>
    28b6:	3301      	adds	r3, #1
    28b8:	3101      	adds	r1, #1
    28ba:	e7ef      	b.n	289c <strncmp+0xa>
    28bc:	bd10      	pop	{r4, pc}

000028be <__sfputc_r>:
    28be:	6893      	ldr	r3, [r2, #8]
    28c0:	b510      	push	{r4, lr}
    28c2:	3b01      	subs	r3, #1
    28c4:	6093      	str	r3, [r2, #8]
    28c6:	2b00      	cmp	r3, #0
    28c8:	da05      	bge.n	28d6 <__sfputc_r+0x18>
    28ca:	6994      	ldr	r4, [r2, #24]
    28cc:	42a3      	cmp	r3, r4
    28ce:	db08      	blt.n	28e2 <__sfputc_r+0x24>
    28d0:	b2cb      	uxtb	r3, r1
    28d2:	2b0a      	cmp	r3, #10
    28d4:	d005      	beq.n	28e2 <__sfputc_r+0x24>
    28d6:	6813      	ldr	r3, [r2, #0]
    28d8:	1c58      	adds	r0, r3, #1
    28da:	6010      	str	r0, [r2, #0]
    28dc:	7019      	strb	r1, [r3, #0]
    28de:	b2c8      	uxtb	r0, r1
    28e0:	e001      	b.n	28e6 <__sfputc_r+0x28>
    28e2:	f000 ff6f 	bl	37c4 <__swbuf_r>
    28e6:	bd10      	pop	{r4, pc}

000028e8 <__sfputs_r>:
    28e8:	b5f8      	push	{r3, r4, r5, r6, r7, lr}
    28ea:	1c06      	adds	r6, r0, #0
    28ec:	1c0f      	adds	r7, r1, #0
    28ee:	1c14      	adds	r4, r2, #0
    28f0:	18d5      	adds	r5, r2, r3
    28f2:	42ac      	cmp	r4, r5
    28f4:	d008      	beq.n	2908 <__sfputs_r+0x20>
    28f6:	7821      	ldrb	r1, [r4, #0]
    28f8:	1c30      	adds	r0, r6, #0
    28fa:	1c3a      	adds	r2, r7, #0
    28fc:	f7ff ffdf 	bl	28be <__sfputc_r>
    2900:	3401      	adds	r4, #1
    2902:	1c43      	adds	r3, r0, #1
    2904:	d1f5      	bne.n	28f2 <__sfputs_r+0xa>
    2906:	e000      	b.n	290a <__sfputs_r+0x22>
    2908:	2000      	movs	r0, #0
    290a:	bdf8      	pop	{r3, r4, r5, r6, r7, pc}

0000290c <_vfiprintf_r>:
    290c:	b5f0      	push	{r4, r5, r6, r7, lr}
    290e:	b09f      	sub	sp, #124	; 0x7c
    2910:	1c06      	adds	r6, r0, #0
    2912:	1c0f      	adds	r7, r1, #0
    2914:	9203      	str	r2, [sp, #12]
    2916:	9305      	str	r3, [sp, #20]
    2918:	2800      	cmp	r0, #0
    291a:	d004      	beq.n	2926 <_vfiprintf_r+0x1a>
    291c:	6981      	ldr	r1, [r0, #24]
    291e:	2900      	cmp	r1, #0
    2920:	d101      	bne.n	2926 <_vfiprintf_r+0x1a>
    2922:	f7ff fd5b 	bl	23dc <__sinit>
    2926:	4b75      	ldr	r3, [pc, #468]	; (2afc <_vfiprintf_r+0x1f0>)
    2928:	429f      	cmp	r7, r3
    292a:	d101      	bne.n	2930 <_vfiprintf_r+0x24>
    292c:	6877      	ldr	r7, [r6, #4]
    292e:	e008      	b.n	2942 <_vfiprintf_r+0x36>
    2930:	4b73      	ldr	r3, [pc, #460]	; (2b00 <_vfiprintf_r+0x1f4>)
    2932:	429f      	cmp	r7, r3
    2934:	d101      	bne.n	293a <_vfiprintf_r+0x2e>
    2936:	68b7      	ldr	r7, [r6, #8]
    2938:	e003      	b.n	2942 <_vfiprintf_r+0x36>
    293a:	4b72      	ldr	r3, [pc, #456]	; (2b04 <_vfiprintf_r+0x1f8>)
    293c:	429f      	cmp	r7, r3
    293e:	d100      	bne.n	2942 <_vfiprintf_r+0x36>
    2940:	68f7      	ldr	r7, [r6, #12]
    2942:	89bb      	ldrh	r3, [r7, #12]
    2944:	071a      	lsls	r2, r3, #28
    2946:	d50a      	bpl.n	295e <_vfiprintf_r+0x52>
    2948:	693b      	ldr	r3, [r7, #16]
    294a:	2b00      	cmp	r3, #0
    294c:	d007      	beq.n	295e <_vfiprintf_r+0x52>
    294e:	ad06      	add	r5, sp, #24
    2950:	2300      	movs	r3, #0
    2952:	616b      	str	r3, [r5, #20]
    2954:	2320      	movs	r3, #32
    2956:	766b      	strb	r3, [r5, #25]
    2958:	2330      	movs	r3, #48	; 0x30
    295a:	76ab      	strb	r3, [r5, #26]
    295c:	e03b      	b.n	29d6 <_vfiprintf_r+0xca>
    295e:	1c30      	adds	r0, r6, #0
    2960:	1c39      	adds	r1, r7, #0
    2962:	f000 ff9b 	bl	389c <__swsetup_r>
    2966:	2800      	cmp	r0, #0
    2968:	d0f1      	beq.n	294e <_vfiprintf_r+0x42>
    296a:	2001      	movs	r0, #1
    296c:	4240      	negs	r0, r0
    296e:	e0c2      	b.n	2af6 <_vfiprintf_r+0x1ea>
    2970:	9a05      	ldr	r2, [sp, #20]
    2972:	1d11      	adds	r1, r2, #4
    2974:	6812      	ldr	r2, [r2, #0]
    2976:	9105      	str	r1, [sp, #20]
    2978:	2a00      	cmp	r2, #0
    297a:	db76      	blt.n	2a6a <_vfiprintf_r+0x15e>
    297c:	9209      	str	r2, [sp, #36]	; 0x24
    297e:	3401      	adds	r4, #1
    2980:	7823      	ldrb	r3, [r4, #0]
    2982:	2b2e      	cmp	r3, #46	; 0x2e
    2984:	d100      	bne.n	2988 <_vfiprintf_r+0x7c>
    2986:	e081      	b.n	2a8c <_vfiprintf_r+0x180>
    2988:	7821      	ldrb	r1, [r4, #0]
    298a:	485f      	ldr	r0, [pc, #380]	; (2b08 <_vfiprintf_r+0x1fc>)
    298c:	2203      	movs	r2, #3
    298e:	f001 fedb 	bl	4748 <memchr>
    2992:	2800      	cmp	r0, #0
    2994:	d007      	beq.n	29a6 <_vfiprintf_r+0x9a>
    2996:	495c      	ldr	r1, [pc, #368]	; (2b08 <_vfiprintf_r+0x1fc>)
    2998:	682a      	ldr	r2, [r5, #0]
    299a:	1a43      	subs	r3, r0, r1
    299c:	2040      	movs	r0, #64	; 0x40
    299e:	4098      	lsls	r0, r3
    29a0:	4310      	orrs	r0, r2
    29a2:	6028      	str	r0, [r5, #0]
    29a4:	3401      	adds	r4, #1
    29a6:	7821      	ldrb	r1, [r4, #0]
    29a8:	1c63      	adds	r3, r4, #1
    29aa:	4858      	ldr	r0, [pc, #352]	; (2b0c <_vfiprintf_r+0x200>)
    29ac:	2206      	movs	r2, #6
    29ae:	9303      	str	r3, [sp, #12]
    29b0:	7629      	strb	r1, [r5, #24]
    29b2:	f001 fec9 	bl	4748 <memchr>
    29b6:	2800      	cmp	r0, #0
    29b8:	d100      	bne.n	29bc <_vfiprintf_r+0xb0>
    29ba:	e08a      	b.n	2ad2 <_vfiprintf_r+0x1c6>
    29bc:	4b54      	ldr	r3, [pc, #336]	; (2b10 <_vfiprintf_r+0x204>)
    29be:	2b00      	cmp	r3, #0
    29c0:	d17e      	bne.n	2ac0 <_vfiprintf_r+0x1b4>
    29c2:	9b05      	ldr	r3, [sp, #20]
    29c4:	2207      	movs	r2, #7
    29c6:	3307      	adds	r3, #7
    29c8:	4393      	bics	r3, r2
    29ca:	3308      	adds	r3, #8
    29cc:	9305      	str	r3, [sp, #20]
    29ce:	696a      	ldr	r2, [r5, #20]
    29d0:	9904      	ldr	r1, [sp, #16]
    29d2:	1853      	adds	r3, r2, r1
    29d4:	616b      	str	r3, [r5, #20]
    29d6:	9c03      	ldr	r4, [sp, #12]
    29d8:	7823      	ldrb	r3, [r4, #0]
    29da:	2b00      	cmp	r3, #0
    29dc:	d104      	bne.n	29e8 <_vfiprintf_r+0xdc>
    29de:	9903      	ldr	r1, [sp, #12]
    29e0:	1a61      	subs	r1, r4, r1
    29e2:	9102      	str	r1, [sp, #8]
    29e4:	d010      	beq.n	2a08 <_vfiprintf_r+0xfc>
    29e6:	e003      	b.n	29f0 <_vfiprintf_r+0xe4>
    29e8:	2b25      	cmp	r3, #37	; 0x25
    29ea:	d0f8      	beq.n	29de <_vfiprintf_r+0xd2>
    29ec:	3401      	adds	r4, #1
    29ee:	e7f3      	b.n	29d8 <_vfiprintf_r+0xcc>
    29f0:	1c30      	adds	r0, r6, #0
    29f2:	1c39      	adds	r1, r7, #0
    29f4:	9a03      	ldr	r2, [sp, #12]
    29f6:	9b02      	ldr	r3, [sp, #8]
    29f8:	f7ff ff76 	bl	28e8 <__sfputs_r>
    29fc:	3001      	adds	r0, #1
    29fe:	d075      	beq.n	2aec <_vfiprintf_r+0x1e0>
    2a00:	696a      	ldr	r2, [r5, #20]
    2a02:	9902      	ldr	r1, [sp, #8]
    2a04:	1853      	adds	r3, r2, r1
    2a06:	616b      	str	r3, [r5, #20]
    2a08:	7823      	ldrb	r3, [r4, #0]
    2a0a:	2b00      	cmp	r3, #0
    2a0c:	d06e      	beq.n	2aec <_vfiprintf_r+0x1e0>
    2a0e:	2201      	movs	r2, #1
    2a10:	4252      	negs	r2, r2
    2a12:	606a      	str	r2, [r5, #4]
    2a14:	466a      	mov	r2, sp
    2a16:	2300      	movs	r3, #0
    2a18:	325b      	adds	r2, #91	; 0x5b
    2a1a:	3401      	adds	r4, #1
    2a1c:	602b      	str	r3, [r5, #0]
    2a1e:	60eb      	str	r3, [r5, #12]
    2a20:	60ab      	str	r3, [r5, #8]
    2a22:	7013      	strb	r3, [r2, #0]
    2a24:	65ab      	str	r3, [r5, #88]	; 0x58
    2a26:	7821      	ldrb	r1, [r4, #0]
    2a28:	483a      	ldr	r0, [pc, #232]	; (2b14 <_vfiprintf_r+0x208>)
    2a2a:	2205      	movs	r2, #5
    2a2c:	f001 fe8c 	bl	4748 <memchr>
    2a30:	2800      	cmp	r0, #0
    2a32:	d008      	beq.n	2a46 <_vfiprintf_r+0x13a>
    2a34:	4a37      	ldr	r2, [pc, #220]	; (2b14 <_vfiprintf_r+0x208>)
    2a36:	3401      	adds	r4, #1
    2a38:	1a83      	subs	r3, r0, r2
    2a3a:	2001      	movs	r0, #1
    2a3c:	4098      	lsls	r0, r3
    2a3e:	682b      	ldr	r3, [r5, #0]
    2a40:	4318      	orrs	r0, r3
    2a42:	6028      	str	r0, [r5, #0]
    2a44:	e7ef      	b.n	2a26 <_vfiprintf_r+0x11a>
    2a46:	682b      	ldr	r3, [r5, #0]
    2a48:	06d9      	lsls	r1, r3, #27
    2a4a:	d503      	bpl.n	2a54 <_vfiprintf_r+0x148>
    2a4c:	466a      	mov	r2, sp
    2a4e:	2120      	movs	r1, #32
    2a50:	325b      	adds	r2, #91	; 0x5b
    2a52:	7011      	strb	r1, [r2, #0]
    2a54:	071a      	lsls	r2, r3, #28
    2a56:	d503      	bpl.n	2a60 <_vfiprintf_r+0x154>
    2a58:	466a      	mov	r2, sp
    2a5a:	212b      	movs	r1, #43	; 0x2b
    2a5c:	325b      	adds	r2, #91	; 0x5b
    2a5e:	7011      	strb	r1, [r2, #0]
    2a60:	7822      	ldrb	r2, [r4, #0]
    2a62:	2a2a      	cmp	r2, #42	; 0x2a
    2a64:	d084      	beq.n	2970 <_vfiprintf_r+0x64>
    2a66:	9b09      	ldr	r3, [sp, #36]	; 0x24
    2a68:	e005      	b.n	2a76 <_vfiprintf_r+0x16a>
    2a6a:	4252      	negs	r2, r2
    2a6c:	60ea      	str	r2, [r5, #12]
    2a6e:	2202      	movs	r2, #2
    2a70:	4313      	orrs	r3, r2
    2a72:	602b      	str	r3, [r5, #0]
    2a74:	e783      	b.n	297e <_vfiprintf_r+0x72>
    2a76:	7822      	ldrb	r2, [r4, #0]
    2a78:	3a30      	subs	r2, #48	; 0x30
    2a7a:	2a09      	cmp	r2, #9
    2a7c:	d804      	bhi.n	2a88 <_vfiprintf_r+0x17c>
    2a7e:	210a      	movs	r1, #10
    2a80:	434b      	muls	r3, r1
    2a82:	3401      	adds	r4, #1
    2a84:	189b      	adds	r3, r3, r2
    2a86:	e7f6      	b.n	2a76 <_vfiprintf_r+0x16a>
    2a88:	9309      	str	r3, [sp, #36]	; 0x24
    2a8a:	e779      	b.n	2980 <_vfiprintf_r+0x74>
    2a8c:	7863      	ldrb	r3, [r4, #1]
    2a8e:	2b2a      	cmp	r3, #42	; 0x2a
    2a90:	d109      	bne.n	2aa6 <_vfiprintf_r+0x19a>
    2a92:	9b05      	ldr	r3, [sp, #20]
    2a94:	3402      	adds	r4, #2
    2a96:	1d1a      	adds	r2, r3, #4
    2a98:	681b      	ldr	r3, [r3, #0]
    2a9a:	9205      	str	r2, [sp, #20]
    2a9c:	2b00      	cmp	r3, #0
    2a9e:	da0d      	bge.n	2abc <_vfiprintf_r+0x1b0>
    2aa0:	2301      	movs	r3, #1
    2aa2:	425b      	negs	r3, r3
    2aa4:	e00a      	b.n	2abc <_vfiprintf_r+0x1b0>
    2aa6:	3401      	adds	r4, #1
    2aa8:	2300      	movs	r3, #0
    2aaa:	7822      	ldrb	r2, [r4, #0]
    2aac:	3a30      	subs	r2, #48	; 0x30
    2aae:	2a09      	cmp	r2, #9
    2ab0:	d804      	bhi.n	2abc <_vfiprintf_r+0x1b0>
    2ab2:	210a      	movs	r1, #10
    2ab4:	434b      	muls	r3, r1
    2ab6:	3401      	adds	r4, #1
    2ab8:	189b      	adds	r3, r3, r2
    2aba:	e7f6      	b.n	2aaa <_vfiprintf_r+0x19e>
    2abc:	9307      	str	r3, [sp, #28]
    2abe:	e763      	b.n	2988 <_vfiprintf_r+0x7c>
    2ac0:	ab05      	add	r3, sp, #20
    2ac2:	9300      	str	r3, [sp, #0]
    2ac4:	1c30      	adds	r0, r6, #0
    2ac6:	1c29      	adds	r1, r5, #0
    2ac8:	1c3a      	adds	r2, r7, #0
    2aca:	4b13      	ldr	r3, [pc, #76]	; (2b18 <_vfiprintf_r+0x20c>)
    2acc:	f000 f8d4 	bl	2c78 <_printf_float>
    2ad0:	e007      	b.n	2ae2 <_vfiprintf_r+0x1d6>
    2ad2:	ab05      	add	r3, sp, #20
    2ad4:	9300      	str	r3, [sp, #0]
    2ad6:	1c30      	adds	r0, r6, #0
    2ad8:	1c29      	adds	r1, r5, #0
    2ada:	1c3a      	adds	r2, r7, #0
    2adc:	4b0e      	ldr	r3, [pc, #56]	; (2b18 <_vfiprintf_r+0x20c>)
    2ade:	f000 fb6b 	bl	31b8 <_printf_i>
    2ae2:	9004      	str	r0, [sp, #16]
    2ae4:	9904      	ldr	r1, [sp, #16]
    2ae6:	3101      	adds	r1, #1
    2ae8:	d000      	beq.n	2aec <_vfiprintf_r+0x1e0>
    2aea:	e770      	b.n	29ce <_vfiprintf_r+0xc2>
    2aec:	89bb      	ldrh	r3, [r7, #12]
    2aee:	065a      	lsls	r2, r3, #25
    2af0:	d500      	bpl.n	2af4 <_vfiprintf_r+0x1e8>
    2af2:	e73a      	b.n	296a <_vfiprintf_r+0x5e>
    2af4:	980b      	ldr	r0, [sp, #44]	; 0x2c
    2af6:	b01f      	add	sp, #124	; 0x7c
    2af8:	bdf0      	pop	{r4, r5, r6, r7, pc}
    2afa:	46c0      	nop			; (mov r8, r8)
    2afc:	00008c34 	andeq	r8, r0, r4, lsr ip
    2b00:	00008c54 	andeq	r8, r0, r4, asr ip
    2b04:	00008c74 	andeq	r8, r0, r4, ror ip
    2b08:	00008ca2 	andeq	r8, r0, r2, lsr #25
    2b0c:	00008ca6 	andeq	r8, r0, r6, lsr #25
    2b10:	00002c79 	andeq	r2, r0, r9, ror ip
    2b14:	00008c9c 	muleq	r0, ip, ip
    2b18:	000028e9 	andeq	r2, r0, r9, ror #17

00002b1c <vfiprintf>:
    2b1c:	b538      	push	{r3, r4, r5, lr}
    2b1e:	1c13      	adds	r3, r2, #0
    2b20:	4a04      	ldr	r2, [pc, #16]	; (2b34 <vfiprintf+0x18>)
    2b22:	1c05      	adds	r5, r0, #0
    2b24:	1c0c      	adds	r4, r1, #0
    2b26:	6810      	ldr	r0, [r2, #0]
    2b28:	1c29      	adds	r1, r5, #0
    2b2a:	1c22      	adds	r2, r4, #0
    2b2c:	f7ff feee 	bl	290c <_vfiprintf_r>
    2b30:	bd38      	pop	{r3, r4, r5, pc}
    2b32:	46c0      	nop			; (mov r8, r8)
    2b34:	1ffff138 	svcne	0x00fff138

00002b38 <__cvt>:
    2b38:	b5f0      	push	{r4, r5, r6, r7, lr}
    2b3a:	b08b      	sub	sp, #44	; 0x2c
    2b3c:	1c16      	adds	r6, r2, #0
    2b3e:	1c1c      	adds	r4, r3, #0
    2b40:	9912      	ldr	r1, [sp, #72]	; 0x48
    2b42:	d504      	bpl.n	2b4e <__cvt+0x16>
    2b44:	2280      	movs	r2, #128	; 0x80
    2b46:	0612      	lsls	r2, r2, #24
    2b48:	18a4      	adds	r4, r4, r2
    2b4a:	232d      	movs	r3, #45	; 0x2d
    2b4c:	e000      	b.n	2b50 <__cvt+0x18>
    2b4e:	2300      	movs	r3, #0
    2b50:	9f14      	ldr	r7, [sp, #80]	; 0x50
    2b52:	700b      	strb	r3, [r1, #0]
    2b54:	2320      	movs	r3, #32
    2b56:	439f      	bics	r7, r3
    2b58:	2f46      	cmp	r7, #70	; 0x46
    2b5a:	d008      	beq.n	2b6e <__cvt+0x36>
    2b5c:	1c3a      	adds	r2, r7, #0
    2b5e:	3a45      	subs	r2, #69	; 0x45
    2b60:	4251      	negs	r1, r2
    2b62:	414a      	adcs	r2, r1
    2b64:	9910      	ldr	r1, [sp, #64]	; 0x40
    2b66:	2302      	movs	r3, #2
    2b68:	1889      	adds	r1, r1, r2
    2b6a:	9110      	str	r1, [sp, #64]	; 0x40
    2b6c:	e000      	b.n	2b70 <__cvt+0x38>
    2b6e:	2303      	movs	r3, #3
    2b70:	9300      	str	r3, [sp, #0]
    2b72:	9b13      	ldr	r3, [sp, #76]	; 0x4c
    2b74:	9a10      	ldr	r2, [sp, #64]	; 0x40
    2b76:	9302      	str	r3, [sp, #8]
    2b78:	ab08      	add	r3, sp, #32
    2b7a:	9303      	str	r3, [sp, #12]
    2b7c:	ab09      	add	r3, sp, #36	; 0x24
    2b7e:	9201      	str	r2, [sp, #4]
    2b80:	9304      	str	r3, [sp, #16]
    2b82:	1c32      	adds	r2, r6, #0
    2b84:	1c23      	adds	r3, r4, #0
    2b86:	f000 ff9b 	bl	3ac0 <_dtoa_r>
    2b8a:	1c05      	adds	r5, r0, #0
    2b8c:	2f47      	cmp	r7, #71	; 0x47
    2b8e:	d102      	bne.n	2b96 <__cvt+0x5e>
    2b90:	9911      	ldr	r1, [sp, #68]	; 0x44
    2b92:	07c9      	lsls	r1, r1, #31
    2b94:	d52c      	bpl.n	2bf0 <__cvt+0xb8>
    2b96:	9910      	ldr	r1, [sp, #64]	; 0x40
    2b98:	1869      	adds	r1, r5, r1
    2b9a:	9107      	str	r1, [sp, #28]
    2b9c:	2f46      	cmp	r7, #70	; 0x46
    2b9e:	d114      	bne.n	2bca <__cvt+0x92>
    2ba0:	782b      	ldrb	r3, [r5, #0]
    2ba2:	2b30      	cmp	r3, #48	; 0x30
    2ba4:	d10c      	bne.n	2bc0 <__cvt+0x88>
    2ba6:	1c30      	adds	r0, r6, #0
    2ba8:	1c21      	adds	r1, r4, #0
    2baa:	4b16      	ldr	r3, [pc, #88]	; (2c04 <__cvt+0xcc>)
    2bac:	4a14      	ldr	r2, [pc, #80]	; (2c00 <__cvt+0xc8>)
    2bae:	f003 fec5 	bl	693c <__aeabi_dcmpeq>
    2bb2:	2800      	cmp	r0, #0
    2bb4:	d104      	bne.n	2bc0 <__cvt+0x88>
    2bb6:	9a10      	ldr	r2, [sp, #64]	; 0x40
    2bb8:	2301      	movs	r3, #1
    2bba:	9913      	ldr	r1, [sp, #76]	; 0x4c
    2bbc:	1a9b      	subs	r3, r3, r2
    2bbe:	600b      	str	r3, [r1, #0]
    2bc0:	9a13      	ldr	r2, [sp, #76]	; 0x4c
    2bc2:	9907      	ldr	r1, [sp, #28]
    2bc4:	6813      	ldr	r3, [r2, #0]
    2bc6:	18c9      	adds	r1, r1, r3
    2bc8:	9107      	str	r1, [sp, #28]
    2bca:	1c30      	adds	r0, r6, #0
    2bcc:	1c21      	adds	r1, r4, #0
    2bce:	4b0d      	ldr	r3, [pc, #52]	; (2c04 <__cvt+0xcc>)
    2bd0:	4a0b      	ldr	r2, [pc, #44]	; (2c00 <__cvt+0xc8>)
    2bd2:	f003 feb3 	bl	693c <__aeabi_dcmpeq>
    2bd6:	2800      	cmp	r0, #0
    2bd8:	d001      	beq.n	2bde <__cvt+0xa6>
    2bda:	9a07      	ldr	r2, [sp, #28]
    2bdc:	9209      	str	r2, [sp, #36]	; 0x24
    2bde:	9b09      	ldr	r3, [sp, #36]	; 0x24
    2be0:	9907      	ldr	r1, [sp, #28]
    2be2:	428b      	cmp	r3, r1
    2be4:	d204      	bcs.n	2bf0 <__cvt+0xb8>
    2be6:	1c5a      	adds	r2, r3, #1
    2be8:	9209      	str	r2, [sp, #36]	; 0x24
    2bea:	2230      	movs	r2, #48	; 0x30
    2bec:	701a      	strb	r2, [r3, #0]
    2bee:	e7f6      	b.n	2bde <__cvt+0xa6>
    2bf0:	9b09      	ldr	r3, [sp, #36]	; 0x24
    2bf2:	1c28      	adds	r0, r5, #0
    2bf4:	1b5a      	subs	r2, r3, r5
    2bf6:	9b15      	ldr	r3, [sp, #84]	; 0x54
    2bf8:	601a      	str	r2, [r3, #0]
    2bfa:	b00b      	add	sp, #44	; 0x2c
    2bfc:	bdf0      	pop	{r4, r5, r6, r7, pc}
    2bfe:	46c0      	nop			; (mov r8, r8)
	...

00002c08 <__exponent>:
    2c08:	b5f0      	push	{r4, r5, r6, r7, lr}
    2c0a:	232b      	movs	r3, #43	; 0x2b
    2c0c:	b085      	sub	sp, #20
    2c0e:	1c05      	adds	r5, r0, #0
    2c10:	1c0c      	adds	r4, r1, #0
    2c12:	7002      	strb	r2, [r0, #0]
    2c14:	1c86      	adds	r6, r0, #2
    2c16:	2900      	cmp	r1, #0
    2c18:	da01      	bge.n	2c1e <__exponent+0x16>
    2c1a:	424c      	negs	r4, r1
    2c1c:	232d      	movs	r3, #45	; 0x2d
    2c1e:	706b      	strb	r3, [r5, #1]
    2c20:	2c09      	cmp	r4, #9
    2c22:	dd1e      	ble.n	2c62 <__exponent+0x5a>
    2c24:	466f      	mov	r7, sp
    2c26:	370e      	adds	r7, #14
    2c28:	1c20      	adds	r0, r4, #0
    2c2a:	210a      	movs	r1, #10
    2c2c:	9701      	str	r7, [sp, #4]
    2c2e:	f003 fe69 	bl	6904 <__aeabi_idivmod>
    2c32:	3130      	adds	r1, #48	; 0x30
    2c34:	7039      	strb	r1, [r7, #0]
    2c36:	1c20      	adds	r0, r4, #0
    2c38:	210a      	movs	r1, #10
    2c3a:	f003 fe0d 	bl	6858 <__aeabi_idiv>
    2c3e:	3f01      	subs	r7, #1
    2c40:	1e04      	subs	r4, r0, #0
    2c42:	2c09      	cmp	r4, #9
    2c44:	dcf0      	bgt.n	2c28 <__exponent+0x20>
    2c46:	9b01      	ldr	r3, [sp, #4]
    2c48:	3430      	adds	r4, #48	; 0x30
    2c4a:	3b01      	subs	r3, #1
    2c4c:	701c      	strb	r4, [r3, #0]
    2c4e:	466a      	mov	r2, sp
    2c50:	320f      	adds	r2, #15
    2c52:	1c30      	adds	r0, r6, #0
    2c54:	4293      	cmp	r3, r2
    2c56:	d209      	bcs.n	2c6c <__exponent+0x64>
    2c58:	781a      	ldrb	r2, [r3, #0]
    2c5a:	3301      	adds	r3, #1
    2c5c:	7032      	strb	r2, [r6, #0]
    2c5e:	3601      	adds	r6, #1
    2c60:	e7f5      	b.n	2c4e <__exponent+0x46>
    2c62:	2330      	movs	r3, #48	; 0x30
    2c64:	18e4      	adds	r4, r4, r3
    2c66:	7033      	strb	r3, [r6, #0]
    2c68:	1cb0      	adds	r0, r6, #2
    2c6a:	7074      	strb	r4, [r6, #1]
    2c6c:	1b40      	subs	r0, r0, r5
    2c6e:	b005      	add	sp, #20
    2c70:	bdf0      	pop	{r4, r5, r6, r7, pc}
    2c72:	0000      	movs	r0, r0
    2c74:	0000      	movs	r0, r0
	...

00002c78 <_printf_float>:
    2c78:	b5f0      	push	{r4, r5, r6, r7, lr}
    2c7a:	b093      	sub	sp, #76	; 0x4c
    2c7c:	1c0c      	adds	r4, r1, #0
    2c7e:	920a      	str	r2, [sp, #40]	; 0x28
    2c80:	930b      	str	r3, [sp, #44]	; 0x2c
    2c82:	9e18      	ldr	r6, [sp, #96]	; 0x60
    2c84:	1c05      	adds	r5, r0, #0
    2c86:	f001 fcf7 	bl	4678 <_localeconv_r>
    2c8a:	6800      	ldr	r0, [r0, #0]
    2c8c:	900c      	str	r0, [sp, #48]	; 0x30
    2c8e:	f7ff fdf9 	bl	2884 <strlen>
    2c92:	2300      	movs	r3, #0
    2c94:	9310      	str	r3, [sp, #64]	; 0x40
    2c96:	6833      	ldr	r3, [r6, #0]
    2c98:	2207      	movs	r2, #7
    2c9a:	3307      	adds	r3, #7
    2c9c:	4393      	bics	r3, r2
    2c9e:	1c1a      	adds	r2, r3, #0
    2ca0:	3208      	adds	r2, #8
    2ca2:	900d      	str	r0, [sp, #52]	; 0x34
    2ca4:	7e27      	ldrb	r7, [r4, #24]
    2ca6:	6818      	ldr	r0, [r3, #0]
    2ca8:	6859      	ldr	r1, [r3, #4]
    2caa:	6032      	str	r2, [r6, #0]
    2cac:	64a0      	str	r0, [r4, #72]	; 0x48
    2cae:	64e1      	str	r1, [r4, #76]	; 0x4c
    2cb0:	f002 f9b4 	bl	501c <__fpclassifyd>
    2cb4:	2801      	cmp	r0, #1
    2cb6:	d119      	bne.n	2cec <_printf_float+0x74>
    2cb8:	6ca0      	ldr	r0, [r4, #72]	; 0x48
    2cba:	6ce1      	ldr	r1, [r4, #76]	; 0x4c
    2cbc:	4bb9      	ldr	r3, [pc, #740]	; (2fa4 <_printf_float+0x32c>)
    2cbe:	4ab8      	ldr	r2, [pc, #736]	; (2fa0 <_printf_float+0x328>)
    2cc0:	f003 fe42 	bl	6948 <__aeabi_dcmplt>
    2cc4:	2800      	cmp	r0, #0
    2cc6:	d003      	beq.n	2cd0 <_printf_float+0x58>
    2cc8:	1c23      	adds	r3, r4, #0
    2cca:	222d      	movs	r2, #45	; 0x2d
    2ccc:	3343      	adds	r3, #67	; 0x43
    2cce:	701a      	strb	r2, [r3, #0]
    2cd0:	2f47      	cmp	r7, #71	; 0x47
    2cd2:	d801      	bhi.n	2cd8 <_printf_float+0x60>
    2cd4:	4eb4      	ldr	r6, [pc, #720]	; (2fa8 <_printf_float+0x330>)
    2cd6:	e000      	b.n	2cda <_printf_float+0x62>
    2cd8:	4eb4      	ldr	r6, [pc, #720]	; (2fac <_printf_float+0x334>)
    2cda:	2303      	movs	r3, #3
    2cdc:	6820      	ldr	r0, [r4, #0]
    2cde:	6123      	str	r3, [r4, #16]
    2ce0:	2304      	movs	r3, #4
    2ce2:	4398      	bics	r0, r3
    2ce4:	2100      	movs	r1, #0
    2ce6:	6020      	str	r0, [r4, #0]
    2ce8:	9109      	str	r1, [sp, #36]	; 0x24
    2cea:	e091      	b.n	2e10 <_printf_float+0x198>
    2cec:	6ca0      	ldr	r0, [r4, #72]	; 0x48
    2cee:	6ce1      	ldr	r1, [r4, #76]	; 0x4c
    2cf0:	f002 f994 	bl	501c <__fpclassifyd>
    2cf4:	6823      	ldr	r3, [r4, #0]
    2cf6:	2800      	cmp	r0, #0
    2cf8:	d10c      	bne.n	2d14 <_printf_float+0x9c>
    2cfa:	2f47      	cmp	r7, #71	; 0x47
    2cfc:	d801      	bhi.n	2d02 <_printf_float+0x8a>
    2cfe:	4eac      	ldr	r6, [pc, #688]	; (2fb0 <_printf_float+0x338>)
    2d00:	e000      	b.n	2d04 <_printf_float+0x8c>
    2d02:	4eac      	ldr	r6, [pc, #688]	; (2fb4 <_printf_float+0x33c>)
    2d04:	2203      	movs	r2, #3
    2d06:	6122      	str	r2, [r4, #16]
    2d08:	2204      	movs	r2, #4
    2d0a:	4393      	bics	r3, r2
    2d0c:	2200      	movs	r2, #0
    2d0e:	6023      	str	r3, [r4, #0]
    2d10:	9209      	str	r2, [sp, #36]	; 0x24
    2d12:	e07d      	b.n	2e10 <_printf_float+0x198>
    2d14:	6862      	ldr	r2, [r4, #4]
    2d16:	1c56      	adds	r6, r2, #1
    2d18:	d101      	bne.n	2d1e <_printf_float+0xa6>
    2d1a:	2206      	movs	r2, #6
    2d1c:	e007      	b.n	2d2e <_printf_float+0xb6>
    2d1e:	2120      	movs	r1, #32
    2d20:	1c38      	adds	r0, r7, #0
    2d22:	4388      	bics	r0, r1
    2d24:	2847      	cmp	r0, #71	; 0x47
    2d26:	d103      	bne.n	2d30 <_printf_float+0xb8>
    2d28:	2a00      	cmp	r2, #0
    2d2a:	d101      	bne.n	2d30 <_printf_float+0xb8>
    2d2c:	2201      	movs	r2, #1
    2d2e:	6062      	str	r2, [r4, #4]
    2d30:	2280      	movs	r2, #128	; 0x80
    2d32:	00d2      	lsls	r2, r2, #3
    2d34:	4313      	orrs	r3, r2
    2d36:	6023      	str	r3, [r4, #0]
    2d38:	9301      	str	r3, [sp, #4]
    2d3a:	466b      	mov	r3, sp
    2d3c:	333b      	adds	r3, #59	; 0x3b
    2d3e:	9302      	str	r3, [sp, #8]
    2d40:	ab0f      	add	r3, sp, #60	; 0x3c
    2d42:	6861      	ldr	r1, [r4, #4]
    2d44:	9303      	str	r3, [sp, #12]
    2d46:	ab10      	add	r3, sp, #64	; 0x40
    2d48:	9305      	str	r3, [sp, #20]
    2d4a:	2300      	movs	r3, #0
    2d4c:	9100      	str	r1, [sp, #0]
    2d4e:	9306      	str	r3, [sp, #24]
    2d50:	9704      	str	r7, [sp, #16]
    2d52:	6ca2      	ldr	r2, [r4, #72]	; 0x48
    2d54:	6ce3      	ldr	r3, [r4, #76]	; 0x4c
    2d56:	1c28      	adds	r0, r5, #0
    2d58:	f7ff feee 	bl	2b38 <__cvt>
    2d5c:	2320      	movs	r3, #32
    2d5e:	1c3a      	adds	r2, r7, #0
    2d60:	1c06      	adds	r6, r0, #0
    2d62:	439a      	bics	r2, r3
    2d64:	990f      	ldr	r1, [sp, #60]	; 0x3c
    2d66:	2a47      	cmp	r2, #71	; 0x47
    2d68:	d107      	bne.n	2d7a <_printf_float+0x102>
    2d6a:	1ccb      	adds	r3, r1, #3
    2d6c:	db02      	blt.n	2d74 <_printf_float+0xfc>
    2d6e:	6860      	ldr	r0, [r4, #4]
    2d70:	4281      	cmp	r1, r0
    2d72:	dd2e      	ble.n	2dd2 <_printf_float+0x15a>
    2d74:	3f02      	subs	r7, #2
    2d76:	b2ff      	uxtb	r7, r7
    2d78:	e001      	b.n	2d7e <_printf_float+0x106>
    2d7a:	2f65      	cmp	r7, #101	; 0x65
    2d7c:	d812      	bhi.n	2da4 <_printf_float+0x12c>
    2d7e:	1c20      	adds	r0, r4, #0
    2d80:	3901      	subs	r1, #1
    2d82:	1c3a      	adds	r2, r7, #0
    2d84:	3050      	adds	r0, #80	; 0x50
    2d86:	910f      	str	r1, [sp, #60]	; 0x3c
    2d88:	f7ff ff3e 	bl	2c08 <__exponent>
    2d8c:	9b10      	ldr	r3, [sp, #64]	; 0x40
    2d8e:	9009      	str	r0, [sp, #36]	; 0x24
    2d90:	18c2      	adds	r2, r0, r3
    2d92:	6122      	str	r2, [r4, #16]
    2d94:	2b01      	cmp	r3, #1
    2d96:	dc02      	bgt.n	2d9e <_printf_float+0x126>
    2d98:	6821      	ldr	r1, [r4, #0]
    2d9a:	07c9      	lsls	r1, r1, #31
    2d9c:	d52f      	bpl.n	2dfe <_printf_float+0x186>
    2d9e:	3201      	adds	r2, #1
    2da0:	6122      	str	r2, [r4, #16]
    2da2:	e02c      	b.n	2dfe <_printf_float+0x186>
    2da4:	2f66      	cmp	r7, #102	; 0x66
    2da6:	d115      	bne.n	2dd4 <_printf_float+0x15c>
    2da8:	6863      	ldr	r3, [r4, #4]
    2daa:	2900      	cmp	r1, #0
    2dac:	dd08      	ble.n	2dc0 <_printf_float+0x148>
    2dae:	6121      	str	r1, [r4, #16]
    2db0:	2b00      	cmp	r3, #0
    2db2:	d102      	bne.n	2dba <_printf_float+0x142>
    2db4:	6822      	ldr	r2, [r4, #0]
    2db6:	07d2      	lsls	r2, r2, #31
    2db8:	d51d      	bpl.n	2df6 <_printf_float+0x17e>
    2dba:	3301      	adds	r3, #1
    2dbc:	18c9      	adds	r1, r1, r3
    2dbe:	e011      	b.n	2de4 <_printf_float+0x16c>
    2dc0:	2b00      	cmp	r3, #0
    2dc2:	d103      	bne.n	2dcc <_printf_float+0x154>
    2dc4:	6820      	ldr	r0, [r4, #0]
    2dc6:	2201      	movs	r2, #1
    2dc8:	4210      	tst	r0, r2
    2dca:	d000      	beq.n	2dce <_printf_float+0x156>
    2dcc:	1c9a      	adds	r2, r3, #2
    2dce:	6122      	str	r2, [r4, #16]
    2dd0:	e011      	b.n	2df6 <_printf_float+0x17e>
    2dd2:	2767      	movs	r7, #103	; 0x67
    2dd4:	9a10      	ldr	r2, [sp, #64]	; 0x40
    2dd6:	4291      	cmp	r1, r2
    2dd8:	db06      	blt.n	2de8 <_printf_float+0x170>
    2dda:	6822      	ldr	r2, [r4, #0]
    2ddc:	6121      	str	r1, [r4, #16]
    2dde:	07d2      	lsls	r2, r2, #31
    2de0:	d509      	bpl.n	2df6 <_printf_float+0x17e>
    2de2:	3101      	adds	r1, #1
    2de4:	6121      	str	r1, [r4, #16]
    2de6:	e006      	b.n	2df6 <_printf_float+0x17e>
    2de8:	2301      	movs	r3, #1
    2dea:	2900      	cmp	r1, #0
    2dec:	dc01      	bgt.n	2df2 <_printf_float+0x17a>
    2dee:	2302      	movs	r3, #2
    2df0:	1a5b      	subs	r3, r3, r1
    2df2:	18d3      	adds	r3, r2, r3
    2df4:	6123      	str	r3, [r4, #16]
    2df6:	9b0f      	ldr	r3, [sp, #60]	; 0x3c
    2df8:	2000      	movs	r0, #0
    2dfa:	65a3      	str	r3, [r4, #88]	; 0x58
    2dfc:	9009      	str	r0, [sp, #36]	; 0x24
    2dfe:	466b      	mov	r3, sp
    2e00:	333b      	adds	r3, #59	; 0x3b
    2e02:	781b      	ldrb	r3, [r3, #0]
    2e04:	2b00      	cmp	r3, #0
    2e06:	d003      	beq.n	2e10 <_printf_float+0x198>
    2e08:	1c23      	adds	r3, r4, #0
    2e0a:	222d      	movs	r2, #45	; 0x2d
    2e0c:	3343      	adds	r3, #67	; 0x43
    2e0e:	701a      	strb	r2, [r3, #0]
    2e10:	990b      	ldr	r1, [sp, #44]	; 0x2c
    2e12:	1c28      	adds	r0, r5, #0
    2e14:	9100      	str	r1, [sp, #0]
    2e16:	aa11      	add	r2, sp, #68	; 0x44
    2e18:	1c21      	adds	r1, r4, #0
    2e1a:	9b0a      	ldr	r3, [sp, #40]	; 0x28
    2e1c:	f000 f958 	bl	30d0 <_printf_common>
    2e20:	3001      	adds	r0, #1
    2e22:	d102      	bne.n	2e2a <_printf_float+0x1b2>
    2e24:	2001      	movs	r0, #1
    2e26:	4240      	negs	r0, r0
    2e28:	e14c      	b.n	30c4 <_printf_float+0x44c>
    2e2a:	6822      	ldr	r2, [r4, #0]
    2e2c:	0553      	lsls	r3, r2, #21
    2e2e:	d404      	bmi.n	2e3a <_printf_float+0x1c2>
    2e30:	1c28      	adds	r0, r5, #0
    2e32:	990a      	ldr	r1, [sp, #40]	; 0x28
    2e34:	1c32      	adds	r2, r6, #0
    2e36:	6923      	ldr	r3, [r4, #16]
    2e38:	e067      	b.n	2f0a <_printf_float+0x292>
    2e3a:	2f65      	cmp	r7, #101	; 0x65
    2e3c:	d800      	bhi.n	2e40 <_printf_float+0x1c8>
    2e3e:	e0e0      	b.n	3002 <_printf_float+0x38a>
    2e40:	6ca0      	ldr	r0, [r4, #72]	; 0x48
    2e42:	6ce1      	ldr	r1, [r4, #76]	; 0x4c
    2e44:	4b57      	ldr	r3, [pc, #348]	; (2fa4 <_printf_float+0x32c>)
    2e46:	4a56      	ldr	r2, [pc, #344]	; (2fa0 <_printf_float+0x328>)
    2e48:	f003 fd78 	bl	693c <__aeabi_dcmpeq>
    2e4c:	2800      	cmp	r0, #0
    2e4e:	d02b      	beq.n	2ea8 <_printf_float+0x230>
    2e50:	1c28      	adds	r0, r5, #0
    2e52:	990a      	ldr	r1, [sp, #40]	; 0x28
    2e54:	4a58      	ldr	r2, [pc, #352]	; (2fb8 <_printf_float+0x340>)
    2e56:	2301      	movs	r3, #1
    2e58:	9e0b      	ldr	r6, [sp, #44]	; 0x2c
    2e5a:	47b0      	blx	r6
    2e5c:	3001      	adds	r0, #1
    2e5e:	d0e1      	beq.n	2e24 <_printf_float+0x1ac>
    2e60:	9f0f      	ldr	r7, [sp, #60]	; 0x3c
    2e62:	9810      	ldr	r0, [sp, #64]	; 0x40
    2e64:	4287      	cmp	r7, r0
    2e66:	db07      	blt.n	2e78 <_printf_float+0x200>
    2e68:	6821      	ldr	r1, [r4, #0]
    2e6a:	07c9      	lsls	r1, r1, #31
    2e6c:	d404      	bmi.n	2e78 <_printf_float+0x200>
    2e6e:	6827      	ldr	r7, [r4, #0]
    2e70:	07bf      	lsls	r7, r7, #30
    2e72:	d500      	bpl.n	2e76 <_printf_float+0x1fe>
    2e74:	e10e      	b.n	3094 <_printf_float+0x41c>
    2e76:	e113      	b.n	30a0 <_printf_float+0x428>
    2e78:	1c28      	adds	r0, r5, #0
    2e7a:	990a      	ldr	r1, [sp, #40]	; 0x28
    2e7c:	9a0c      	ldr	r2, [sp, #48]	; 0x30
    2e7e:	9b0d      	ldr	r3, [sp, #52]	; 0x34
    2e80:	9e0b      	ldr	r6, [sp, #44]	; 0x2c
    2e82:	47b0      	blx	r6
    2e84:	3001      	adds	r0, #1
    2e86:	d0cd      	beq.n	2e24 <_printf_float+0x1ac>
    2e88:	2600      	movs	r6, #0
    2e8a:	9b10      	ldr	r3, [sp, #64]	; 0x40
    2e8c:	3b01      	subs	r3, #1
    2e8e:	429e      	cmp	r6, r3
    2e90:	daed      	bge.n	2e6e <_printf_float+0x1f6>
    2e92:	1c22      	adds	r2, r4, #0
    2e94:	1c28      	adds	r0, r5, #0
    2e96:	990a      	ldr	r1, [sp, #40]	; 0x28
    2e98:	321a      	adds	r2, #26
    2e9a:	2301      	movs	r3, #1
    2e9c:	9f0b      	ldr	r7, [sp, #44]	; 0x2c
    2e9e:	47b8      	blx	r7
    2ea0:	3001      	adds	r0, #1
    2ea2:	d0bf      	beq.n	2e24 <_printf_float+0x1ac>
    2ea4:	3601      	adds	r6, #1
    2ea6:	e7f0      	b.n	2e8a <_printf_float+0x212>
    2ea8:	980f      	ldr	r0, [sp, #60]	; 0x3c
    2eaa:	2800      	cmp	r0, #0
    2eac:	dc30      	bgt.n	2f10 <_printf_float+0x298>
    2eae:	1c28      	adds	r0, r5, #0
    2eb0:	990a      	ldr	r1, [sp, #40]	; 0x28
    2eb2:	4a41      	ldr	r2, [pc, #260]	; (2fb8 <_printf_float+0x340>)
    2eb4:	2301      	movs	r3, #1
    2eb6:	9f0b      	ldr	r7, [sp, #44]	; 0x2c
    2eb8:	47b8      	blx	r7
    2eba:	3001      	adds	r0, #1
    2ebc:	d0b2      	beq.n	2e24 <_printf_float+0x1ac>
    2ebe:	980f      	ldr	r0, [sp, #60]	; 0x3c
    2ec0:	2800      	cmp	r0, #0
    2ec2:	d105      	bne.n	2ed0 <_printf_float+0x258>
    2ec4:	9910      	ldr	r1, [sp, #64]	; 0x40
    2ec6:	2900      	cmp	r1, #0
    2ec8:	d102      	bne.n	2ed0 <_printf_float+0x258>
    2eca:	6822      	ldr	r2, [r4, #0]
    2ecc:	07d2      	lsls	r2, r2, #31
    2ece:	d5ce      	bpl.n	2e6e <_printf_float+0x1f6>
    2ed0:	1c28      	adds	r0, r5, #0
    2ed2:	990a      	ldr	r1, [sp, #40]	; 0x28
    2ed4:	9a0c      	ldr	r2, [sp, #48]	; 0x30
    2ed6:	9b0d      	ldr	r3, [sp, #52]	; 0x34
    2ed8:	9f0b      	ldr	r7, [sp, #44]	; 0x2c
    2eda:	47b8      	blx	r7
    2edc:	3001      	adds	r0, #1
    2ede:	d0a1      	beq.n	2e24 <_printf_float+0x1ac>
    2ee0:	2700      	movs	r7, #0
    2ee2:	980f      	ldr	r0, [sp, #60]	; 0x3c
    2ee4:	9709      	str	r7, [sp, #36]	; 0x24
    2ee6:	9f09      	ldr	r7, [sp, #36]	; 0x24
    2ee8:	4243      	negs	r3, r0
    2eea:	990a      	ldr	r1, [sp, #40]	; 0x28
    2eec:	1c28      	adds	r0, r5, #0
    2eee:	429f      	cmp	r7, r3
    2ef0:	da09      	bge.n	2f06 <_printf_float+0x28e>
    2ef2:	1c22      	adds	r2, r4, #0
    2ef4:	321a      	adds	r2, #26
    2ef6:	2301      	movs	r3, #1
    2ef8:	9f0b      	ldr	r7, [sp, #44]	; 0x2c
    2efa:	47b8      	blx	r7
    2efc:	3001      	adds	r0, #1
    2efe:	d091      	beq.n	2e24 <_printf_float+0x1ac>
    2f00:	9f09      	ldr	r7, [sp, #36]	; 0x24
    2f02:	3701      	adds	r7, #1
    2f04:	e7ed      	b.n	2ee2 <_printf_float+0x26a>
    2f06:	9b10      	ldr	r3, [sp, #64]	; 0x40
    2f08:	1c32      	adds	r2, r6, #0
    2f0a:	9e0b      	ldr	r6, [sp, #44]	; 0x2c
    2f0c:	47b0      	blx	r6
    2f0e:	e0b5      	b.n	307c <_printf_float+0x404>
    2f10:	9f10      	ldr	r7, [sp, #64]	; 0x40
    2f12:	6da3      	ldr	r3, [r4, #88]	; 0x58
    2f14:	9708      	str	r7, [sp, #32]
    2f16:	429f      	cmp	r7, r3
    2f18:	dd00      	ble.n	2f1c <_printf_float+0x2a4>
    2f1a:	9308      	str	r3, [sp, #32]
    2f1c:	9f08      	ldr	r7, [sp, #32]
    2f1e:	2f00      	cmp	r7, #0
    2f20:	dc01      	bgt.n	2f26 <_printf_float+0x2ae>
    2f22:	2700      	movs	r7, #0
    2f24:	e014      	b.n	2f50 <_printf_float+0x2d8>
    2f26:	1c28      	adds	r0, r5, #0
    2f28:	990a      	ldr	r1, [sp, #40]	; 0x28
    2f2a:	1c32      	adds	r2, r6, #0
    2f2c:	9b08      	ldr	r3, [sp, #32]
    2f2e:	9f0b      	ldr	r7, [sp, #44]	; 0x2c
    2f30:	47b8      	blx	r7
    2f32:	3001      	adds	r0, #1
    2f34:	d1f5      	bne.n	2f22 <_printf_float+0x2aa>
    2f36:	e775      	b.n	2e24 <_printf_float+0x1ac>
    2f38:	1c22      	adds	r2, r4, #0
    2f3a:	1c28      	adds	r0, r5, #0
    2f3c:	990a      	ldr	r1, [sp, #40]	; 0x28
    2f3e:	321a      	adds	r2, #26
    2f40:	2301      	movs	r3, #1
    2f42:	9f0b      	ldr	r7, [sp, #44]	; 0x2c
    2f44:	47b8      	blx	r7
    2f46:	3001      	adds	r0, #1
    2f48:	d100      	bne.n	2f4c <_printf_float+0x2d4>
    2f4a:	e76b      	b.n	2e24 <_printf_float+0x1ac>
    2f4c:	9f09      	ldr	r7, [sp, #36]	; 0x24
    2f4e:	3701      	adds	r7, #1
    2f50:	9709      	str	r7, [sp, #36]	; 0x24
    2f52:	9f08      	ldr	r7, [sp, #32]
    2f54:	6da3      	ldr	r3, [r4, #88]	; 0x58
    2f56:	43fa      	mvns	r2, r7
    2f58:	17d2      	asrs	r2, r2, #31
    2f5a:	403a      	ands	r2, r7
    2f5c:	9f09      	ldr	r7, [sp, #36]	; 0x24
    2f5e:	1a9a      	subs	r2, r3, r2
    2f60:	4297      	cmp	r7, r2
    2f62:	dbe9      	blt.n	2f38 <_printf_float+0x2c0>
    2f64:	980f      	ldr	r0, [sp, #60]	; 0x3c
    2f66:	9910      	ldr	r1, [sp, #64]	; 0x40
    2f68:	18f3      	adds	r3, r6, r3
    2f6a:	9309      	str	r3, [sp, #36]	; 0x24
    2f6c:	4288      	cmp	r0, r1
    2f6e:	db0e      	blt.n	2f8e <_printf_float+0x316>
    2f70:	6822      	ldr	r2, [r4, #0]
    2f72:	07d2      	lsls	r2, r2, #31
    2f74:	d40b      	bmi.n	2f8e <_printf_float+0x316>
    2f76:	9b10      	ldr	r3, [sp, #64]	; 0x40
    2f78:	9f0f      	ldr	r7, [sp, #60]	; 0x3c
    2f7a:	18f6      	adds	r6, r6, r3
    2f7c:	1bdb      	subs	r3, r3, r7
    2f7e:	9f09      	ldr	r7, [sp, #36]	; 0x24
    2f80:	1bf6      	subs	r6, r6, r7
    2f82:	429e      	cmp	r6, r3
    2f84:	dd00      	ble.n	2f88 <_printf_float+0x310>
    2f86:	1c1e      	adds	r6, r3, #0
    2f88:	2e00      	cmp	r6, #0
    2f8a:	dc17      	bgt.n	2fbc <_printf_float+0x344>
    2f8c:	e01f      	b.n	2fce <_printf_float+0x356>
    2f8e:	1c28      	adds	r0, r5, #0
    2f90:	990a      	ldr	r1, [sp, #40]	; 0x28
    2f92:	9a0c      	ldr	r2, [sp, #48]	; 0x30
    2f94:	9b0d      	ldr	r3, [sp, #52]	; 0x34
    2f96:	9f0b      	ldr	r7, [sp, #44]	; 0x2c
    2f98:	47b8      	blx	r7
    2f9a:	3001      	adds	r0, #1
    2f9c:	d1eb      	bne.n	2f76 <_printf_float+0x2fe>
    2f9e:	e741      	b.n	2e24 <_printf_float+0x1ac>
	...
    2fa8:	00008cad 	andeq	r8, r0, sp, lsr #25
    2fac:	00008cb1 			; <UNDEFINED> instruction: 0x00008cb1
    2fb0:	00008cb5 			; <UNDEFINED> instruction: 0x00008cb5
    2fb4:	00008cb9 			; <UNDEFINED> instruction: 0x00008cb9
    2fb8:	00008cbd 			; <UNDEFINED> instruction: 0x00008cbd
    2fbc:	1c28      	adds	r0, r5, #0
    2fbe:	990a      	ldr	r1, [sp, #40]	; 0x28
    2fc0:	9a09      	ldr	r2, [sp, #36]	; 0x24
    2fc2:	1c33      	adds	r3, r6, #0
    2fc4:	9f0b      	ldr	r7, [sp, #44]	; 0x2c
    2fc6:	47b8      	blx	r7
    2fc8:	3001      	adds	r0, #1
    2fca:	d100      	bne.n	2fce <_printf_float+0x356>
    2fcc:	e72a      	b.n	2e24 <_printf_float+0x1ac>
    2fce:	2700      	movs	r7, #0
    2fd0:	e00b      	b.n	2fea <_printf_float+0x372>
    2fd2:	1c22      	adds	r2, r4, #0
    2fd4:	1c28      	adds	r0, r5, #0
    2fd6:	990a      	ldr	r1, [sp, #40]	; 0x28
    2fd8:	321a      	adds	r2, #26
    2fda:	2301      	movs	r3, #1
    2fdc:	9f0b      	ldr	r7, [sp, #44]	; 0x2c
    2fde:	47b8      	blx	r7
    2fe0:	3001      	adds	r0, #1
    2fe2:	d100      	bne.n	2fe6 <_printf_float+0x36e>
    2fe4:	e71e      	b.n	2e24 <_printf_float+0x1ac>
    2fe6:	9f09      	ldr	r7, [sp, #36]	; 0x24
    2fe8:	3701      	adds	r7, #1
    2fea:	9709      	str	r7, [sp, #36]	; 0x24
    2fec:	9810      	ldr	r0, [sp, #64]	; 0x40
    2fee:	990f      	ldr	r1, [sp, #60]	; 0x3c
    2ff0:	43f3      	mvns	r3, r6
    2ff2:	17db      	asrs	r3, r3, #31
    2ff4:	9f09      	ldr	r7, [sp, #36]	; 0x24
    2ff6:	1a42      	subs	r2, r0, r1
    2ff8:	4033      	ands	r3, r6
    2ffa:	1ad3      	subs	r3, r2, r3
    2ffc:	429f      	cmp	r7, r3
    2ffe:	dbe8      	blt.n	2fd2 <_printf_float+0x35a>
    3000:	e735      	b.n	2e6e <_printf_float+0x1f6>
    3002:	9810      	ldr	r0, [sp, #64]	; 0x40
    3004:	2801      	cmp	r0, #1
    3006:	dc02      	bgt.n	300e <_printf_float+0x396>
    3008:	2301      	movs	r3, #1
    300a:	421a      	tst	r2, r3
    300c:	d03a      	beq.n	3084 <_printf_float+0x40c>
    300e:	1c28      	adds	r0, r5, #0
    3010:	990a      	ldr	r1, [sp, #40]	; 0x28
    3012:	1c32      	adds	r2, r6, #0
    3014:	2301      	movs	r3, #1
    3016:	9f0b      	ldr	r7, [sp, #44]	; 0x2c
    3018:	47b8      	blx	r7
    301a:	3001      	adds	r0, #1
    301c:	d100      	bne.n	3020 <_printf_float+0x3a8>
    301e:	e701      	b.n	2e24 <_printf_float+0x1ac>
    3020:	1c28      	adds	r0, r5, #0
    3022:	990a      	ldr	r1, [sp, #40]	; 0x28
    3024:	9a0c      	ldr	r2, [sp, #48]	; 0x30
    3026:	9b0d      	ldr	r3, [sp, #52]	; 0x34
    3028:	47b8      	blx	r7
    302a:	3001      	adds	r0, #1
    302c:	d100      	bne.n	3030 <_printf_float+0x3b8>
    302e:	e6f9      	b.n	2e24 <_printf_float+0x1ac>
    3030:	6ca0      	ldr	r0, [r4, #72]	; 0x48
    3032:	6ce1      	ldr	r1, [r4, #76]	; 0x4c
    3034:	4b25      	ldr	r3, [pc, #148]	; (30cc <_printf_float+0x454>)
    3036:	4a24      	ldr	r2, [pc, #144]	; (30c8 <_printf_float+0x450>)
    3038:	f003 fc80 	bl	693c <__aeabi_dcmpeq>
    303c:	2800      	cmp	r0, #0
    303e:	d001      	beq.n	3044 <_printf_float+0x3cc>
    3040:	2600      	movs	r6, #0
    3042:	e010      	b.n	3066 <_printf_float+0x3ee>
    3044:	9b10      	ldr	r3, [sp, #64]	; 0x40
    3046:	1c72      	adds	r2, r6, #1
    3048:	3b01      	subs	r3, #1
    304a:	1c28      	adds	r0, r5, #0
    304c:	990a      	ldr	r1, [sp, #40]	; 0x28
    304e:	e01c      	b.n	308a <_printf_float+0x412>
    3050:	1c22      	adds	r2, r4, #0
    3052:	1c28      	adds	r0, r5, #0
    3054:	990a      	ldr	r1, [sp, #40]	; 0x28
    3056:	321a      	adds	r2, #26
    3058:	2301      	movs	r3, #1
    305a:	9f0b      	ldr	r7, [sp, #44]	; 0x2c
    305c:	47b8      	blx	r7
    305e:	3001      	adds	r0, #1
    3060:	d100      	bne.n	3064 <_printf_float+0x3ec>
    3062:	e6df      	b.n	2e24 <_printf_float+0x1ac>
    3064:	3601      	adds	r6, #1
    3066:	9b10      	ldr	r3, [sp, #64]	; 0x40
    3068:	3b01      	subs	r3, #1
    306a:	429e      	cmp	r6, r3
    306c:	dbf0      	blt.n	3050 <_printf_float+0x3d8>
    306e:	1c22      	adds	r2, r4, #0
    3070:	1c28      	adds	r0, r5, #0
    3072:	990a      	ldr	r1, [sp, #40]	; 0x28
    3074:	3250      	adds	r2, #80	; 0x50
    3076:	9b09      	ldr	r3, [sp, #36]	; 0x24
    3078:	9f0b      	ldr	r7, [sp, #44]	; 0x2c
    307a:	47b8      	blx	r7
    307c:	3001      	adds	r0, #1
    307e:	d000      	beq.n	3082 <_printf_float+0x40a>
    3080:	e6f5      	b.n	2e6e <_printf_float+0x1f6>
    3082:	e6cf      	b.n	2e24 <_printf_float+0x1ac>
    3084:	990a      	ldr	r1, [sp, #40]	; 0x28
    3086:	1c28      	adds	r0, r5, #0
    3088:	1c32      	adds	r2, r6, #0
    308a:	9e0b      	ldr	r6, [sp, #44]	; 0x2c
    308c:	47b0      	blx	r6
    308e:	3001      	adds	r0, #1
    3090:	d1ed      	bne.n	306e <_printf_float+0x3f6>
    3092:	e6c7      	b.n	2e24 <_printf_float+0x1ac>
    3094:	2600      	movs	r6, #0
    3096:	68e0      	ldr	r0, [r4, #12]
    3098:	9911      	ldr	r1, [sp, #68]	; 0x44
    309a:	1a43      	subs	r3, r0, r1
    309c:	429e      	cmp	r6, r3
    309e:	db05      	blt.n	30ac <_printf_float+0x434>
    30a0:	9b11      	ldr	r3, [sp, #68]	; 0x44
    30a2:	68e0      	ldr	r0, [r4, #12]
    30a4:	4298      	cmp	r0, r3
    30a6:	da0d      	bge.n	30c4 <_printf_float+0x44c>
    30a8:	1c18      	adds	r0, r3, #0
    30aa:	e00b      	b.n	30c4 <_printf_float+0x44c>
    30ac:	1c22      	adds	r2, r4, #0
    30ae:	1c28      	adds	r0, r5, #0
    30b0:	990a      	ldr	r1, [sp, #40]	; 0x28
    30b2:	3219      	adds	r2, #25
    30b4:	2301      	movs	r3, #1
    30b6:	9f0b      	ldr	r7, [sp, #44]	; 0x2c
    30b8:	47b8      	blx	r7
    30ba:	3001      	adds	r0, #1
    30bc:	d100      	bne.n	30c0 <_printf_float+0x448>
    30be:	e6b1      	b.n	2e24 <_printf_float+0x1ac>
    30c0:	3601      	adds	r6, #1
    30c2:	e7e8      	b.n	3096 <_printf_float+0x41e>
    30c4:	b013      	add	sp, #76	; 0x4c
    30c6:	bdf0      	pop	{r4, r5, r6, r7, pc}
	...

000030d0 <_printf_common>:
    30d0:	b5f7      	push	{r0, r1, r2, r4, r5, r6, r7, lr}
    30d2:	1c15      	adds	r5, r2, #0
    30d4:	9301      	str	r3, [sp, #4]
    30d6:	690a      	ldr	r2, [r1, #16]
    30d8:	688b      	ldr	r3, [r1, #8]
    30da:	1c06      	adds	r6, r0, #0
    30dc:	1c0c      	adds	r4, r1, #0
    30de:	4293      	cmp	r3, r2
    30e0:	da00      	bge.n	30e4 <_printf_common+0x14>
    30e2:	1c13      	adds	r3, r2, #0
    30e4:	1c22      	adds	r2, r4, #0
    30e6:	602b      	str	r3, [r5, #0]
    30e8:	3243      	adds	r2, #67	; 0x43
    30ea:	7812      	ldrb	r2, [r2, #0]
    30ec:	2a00      	cmp	r2, #0
    30ee:	d001      	beq.n	30f4 <_printf_common+0x24>
    30f0:	3301      	adds	r3, #1
    30f2:	602b      	str	r3, [r5, #0]
    30f4:	6820      	ldr	r0, [r4, #0]
    30f6:	0680      	lsls	r0, r0, #26
    30f8:	d502      	bpl.n	3100 <_printf_common+0x30>
    30fa:	682b      	ldr	r3, [r5, #0]
    30fc:	3302      	adds	r3, #2
    30fe:	602b      	str	r3, [r5, #0]
    3100:	6821      	ldr	r1, [r4, #0]
    3102:	2706      	movs	r7, #6
    3104:	400f      	ands	r7, r1
    3106:	d01f      	beq.n	3148 <_printf_common+0x78>
    3108:	1c23      	adds	r3, r4, #0
    310a:	3343      	adds	r3, #67	; 0x43
    310c:	781b      	ldrb	r3, [r3, #0]
    310e:	1e5a      	subs	r2, r3, #1
    3110:	4193      	sbcs	r3, r2
    3112:	6822      	ldr	r2, [r4, #0]
    3114:	0692      	lsls	r2, r2, #26
    3116:	d51f      	bpl.n	3158 <_printf_common+0x88>
    3118:	18e1      	adds	r1, r4, r3
    311a:	3140      	adds	r1, #64	; 0x40
    311c:	2030      	movs	r0, #48	; 0x30
    311e:	70c8      	strb	r0, [r1, #3]
    3120:	1c21      	adds	r1, r4, #0
    3122:	1c5a      	adds	r2, r3, #1
    3124:	3145      	adds	r1, #69	; 0x45
    3126:	7809      	ldrb	r1, [r1, #0]
    3128:	18a2      	adds	r2, r4, r2
    312a:	3240      	adds	r2, #64	; 0x40
    312c:	3302      	adds	r3, #2
    312e:	70d1      	strb	r1, [r2, #3]
    3130:	e012      	b.n	3158 <_printf_common+0x88>
    3132:	1c22      	adds	r2, r4, #0
    3134:	1c30      	adds	r0, r6, #0
    3136:	9901      	ldr	r1, [sp, #4]
    3138:	3219      	adds	r2, #25
    313a:	2301      	movs	r3, #1
    313c:	9f08      	ldr	r7, [sp, #32]
    313e:	47b8      	blx	r7
    3140:	3001      	adds	r0, #1
    3142:	d011      	beq.n	3168 <_printf_common+0x98>
    3144:	9f00      	ldr	r7, [sp, #0]
    3146:	3701      	adds	r7, #1
    3148:	9700      	str	r7, [sp, #0]
    314a:	68e0      	ldr	r0, [r4, #12]
    314c:	6829      	ldr	r1, [r5, #0]
    314e:	9f00      	ldr	r7, [sp, #0]
    3150:	1a43      	subs	r3, r0, r1
    3152:	429f      	cmp	r7, r3
    3154:	dbed      	blt.n	3132 <_printf_common+0x62>
    3156:	e7d7      	b.n	3108 <_printf_common+0x38>
    3158:	1c22      	adds	r2, r4, #0
    315a:	1c30      	adds	r0, r6, #0
    315c:	9901      	ldr	r1, [sp, #4]
    315e:	3243      	adds	r2, #67	; 0x43
    3160:	9f08      	ldr	r7, [sp, #32]
    3162:	47b8      	blx	r7
    3164:	3001      	adds	r0, #1
    3166:	d102      	bne.n	316e <_printf_common+0x9e>
    3168:	2001      	movs	r0, #1
    316a:	4240      	negs	r0, r0
    316c:	e023      	b.n	31b6 <_printf_common+0xe6>
    316e:	6820      	ldr	r0, [r4, #0]
    3170:	2106      	movs	r1, #6
    3172:	682b      	ldr	r3, [r5, #0]
    3174:	68e2      	ldr	r2, [r4, #12]
    3176:	4001      	ands	r1, r0
    3178:	2500      	movs	r5, #0
    317a:	2904      	cmp	r1, #4
    317c:	d103      	bne.n	3186 <_printf_common+0xb6>
    317e:	1ad5      	subs	r5, r2, r3
    3180:	43eb      	mvns	r3, r5
    3182:	17db      	asrs	r3, r3, #31
    3184:	401d      	ands	r5, r3
    3186:	68a2      	ldr	r2, [r4, #8]
    3188:	6923      	ldr	r3, [r4, #16]
    318a:	429a      	cmp	r2, r3
    318c:	dd01      	ble.n	3192 <_printf_common+0xc2>
    318e:	1ad3      	subs	r3, r2, r3
    3190:	18ed      	adds	r5, r5, r3
    3192:	2700      	movs	r7, #0
    3194:	9700      	str	r7, [sp, #0]
    3196:	9f00      	ldr	r7, [sp, #0]
    3198:	42af      	cmp	r7, r5
    319a:	da0b      	bge.n	31b4 <_printf_common+0xe4>
    319c:	1c22      	adds	r2, r4, #0
    319e:	1c30      	adds	r0, r6, #0
    31a0:	9901      	ldr	r1, [sp, #4]
    31a2:	321a      	adds	r2, #26
    31a4:	2301      	movs	r3, #1
    31a6:	9f08      	ldr	r7, [sp, #32]
    31a8:	47b8      	blx	r7
    31aa:	3001      	adds	r0, #1
    31ac:	d0dc      	beq.n	3168 <_printf_common+0x98>
    31ae:	9f00      	ldr	r7, [sp, #0]
    31b0:	3701      	adds	r7, #1
    31b2:	e7ef      	b.n	3194 <_printf_common+0xc4>
    31b4:	2000      	movs	r0, #0
    31b6:	bdfe      	pop	{r1, r2, r3, r4, r5, r6, r7, pc}

000031b8 <_printf_i>:
    31b8:	b5f0      	push	{r4, r5, r6, r7, lr}
    31ba:	b08b      	sub	sp, #44	; 0x2c
    31bc:	9307      	str	r3, [sp, #28]
    31be:	1c0d      	adds	r5, r1, #0
    31c0:	7e0b      	ldrb	r3, [r1, #24]
    31c2:	3543      	adds	r5, #67	; 0x43
    31c4:	9206      	str	r2, [sp, #24]
    31c6:	9005      	str	r0, [sp, #20]
    31c8:	1c0c      	adds	r4, r1, #0
    31ca:	9a10      	ldr	r2, [sp, #64]	; 0x40
    31cc:	9504      	str	r5, [sp, #16]
    31ce:	2b6e      	cmp	r3, #110	; 0x6e
    31d0:	d100      	bne.n	31d4 <_printf_i+0x1c>
    31d2:	e0a7      	b.n	3324 <_printf_i+0x16c>
    31d4:	d811      	bhi.n	31fa <_printf_i+0x42>
    31d6:	2b63      	cmp	r3, #99	; 0x63
    31d8:	d022      	beq.n	3220 <_printf_i+0x68>
    31da:	d809      	bhi.n	31f0 <_printf_i+0x38>
    31dc:	2b00      	cmp	r3, #0
    31de:	d100      	bne.n	31e2 <_printf_i+0x2a>
    31e0:	e0b0      	b.n	3344 <_printf_i+0x18c>
    31e2:	2b58      	cmp	r3, #88	; 0x58
    31e4:	d000      	beq.n	31e8 <_printf_i+0x30>
    31e6:	e0c0      	b.n	336a <_printf_i+0x1b2>
    31e8:	3145      	adds	r1, #69	; 0x45
    31ea:	700b      	strb	r3, [r1, #0]
    31ec:	4d7b      	ldr	r5, [pc, #492]	; (33dc <_printf_i+0x224>)
    31ee:	e04e      	b.n	328e <_printf_i+0xd6>
    31f0:	2b64      	cmp	r3, #100	; 0x64
    31f2:	d01c      	beq.n	322e <_printf_i+0x76>
    31f4:	2b69      	cmp	r3, #105	; 0x69
    31f6:	d01a      	beq.n	322e <_printf_i+0x76>
    31f8:	e0b7      	b.n	336a <_printf_i+0x1b2>
    31fa:	2b73      	cmp	r3, #115	; 0x73
    31fc:	d100      	bne.n	3200 <_printf_i+0x48>
    31fe:	e0a5      	b.n	334c <_printf_i+0x194>
    3200:	d809      	bhi.n	3216 <_printf_i+0x5e>
    3202:	2b6f      	cmp	r3, #111	; 0x6f
    3204:	d029      	beq.n	325a <_printf_i+0xa2>
    3206:	2b70      	cmp	r3, #112	; 0x70
    3208:	d000      	beq.n	320c <_printf_i+0x54>
    320a:	e0ae      	b.n	336a <_printf_i+0x1b2>
    320c:	680e      	ldr	r6, [r1, #0]
    320e:	2320      	movs	r3, #32
    3210:	4333      	orrs	r3, r6
    3212:	600b      	str	r3, [r1, #0]
    3214:	e036      	b.n	3284 <_printf_i+0xcc>
    3216:	2b75      	cmp	r3, #117	; 0x75
    3218:	d01f      	beq.n	325a <_printf_i+0xa2>
    321a:	2b78      	cmp	r3, #120	; 0x78
    321c:	d032      	beq.n	3284 <_printf_i+0xcc>
    321e:	e0a4      	b.n	336a <_printf_i+0x1b2>
    3220:	6813      	ldr	r3, [r2, #0]
    3222:	1c0d      	adds	r5, r1, #0
    3224:	1d19      	adds	r1, r3, #4
    3226:	3542      	adds	r5, #66	; 0x42
    3228:	6011      	str	r1, [r2, #0]
    322a:	681b      	ldr	r3, [r3, #0]
    322c:	e09f      	b.n	336e <_printf_i+0x1b6>
    322e:	6821      	ldr	r1, [r4, #0]
    3230:	6813      	ldr	r3, [r2, #0]
    3232:	060e      	lsls	r6, r1, #24
    3234:	d503      	bpl.n	323e <_printf_i+0x86>
    3236:	1d19      	adds	r1, r3, #4
    3238:	6011      	str	r1, [r2, #0]
    323a:	681e      	ldr	r6, [r3, #0]
    323c:	e005      	b.n	324a <_printf_i+0x92>
    323e:	0648      	lsls	r0, r1, #25
    3240:	d5f9      	bpl.n	3236 <_printf_i+0x7e>
    3242:	1d19      	adds	r1, r3, #4
    3244:	6011      	str	r1, [r2, #0]
    3246:	2100      	movs	r1, #0
    3248:	5e5e      	ldrsh	r6, [r3, r1]
    324a:	4b64      	ldr	r3, [pc, #400]	; (33dc <_printf_i+0x224>)
    324c:	2e00      	cmp	r6, #0
    324e:	da3b      	bge.n	32c8 <_printf_i+0x110>
    3250:	9d04      	ldr	r5, [sp, #16]
    3252:	222d      	movs	r2, #45	; 0x2d
    3254:	4276      	negs	r6, r6
    3256:	702a      	strb	r2, [r5, #0]
    3258:	e036      	b.n	32c8 <_printf_i+0x110>
    325a:	6821      	ldr	r1, [r4, #0]
    325c:	6813      	ldr	r3, [r2, #0]
    325e:	060e      	lsls	r6, r1, #24
    3260:	d503      	bpl.n	326a <_printf_i+0xb2>
    3262:	1d19      	adds	r1, r3, #4
    3264:	6011      	str	r1, [r2, #0]
    3266:	681e      	ldr	r6, [r3, #0]
    3268:	e004      	b.n	3274 <_printf_i+0xbc>
    326a:	0648      	lsls	r0, r1, #25
    326c:	d5f9      	bpl.n	3262 <_printf_i+0xaa>
    326e:	1d19      	adds	r1, r3, #4
    3270:	881e      	ldrh	r6, [r3, #0]
    3272:	6011      	str	r1, [r2, #0]
    3274:	4b59      	ldr	r3, [pc, #356]	; (33dc <_printf_i+0x224>)
    3276:	7e22      	ldrb	r2, [r4, #24]
    3278:	9303      	str	r3, [sp, #12]
    327a:	2708      	movs	r7, #8
    327c:	2a6f      	cmp	r2, #111	; 0x6f
    327e:	d01e      	beq.n	32be <_printf_i+0x106>
    3280:	270a      	movs	r7, #10
    3282:	e01c      	b.n	32be <_printf_i+0x106>
    3284:	1c23      	adds	r3, r4, #0
    3286:	2178      	movs	r1, #120	; 0x78
    3288:	3345      	adds	r3, #69	; 0x45
    328a:	4d55      	ldr	r5, [pc, #340]	; (33e0 <_printf_i+0x228>)
    328c:	7019      	strb	r1, [r3, #0]
    328e:	6811      	ldr	r1, [r2, #0]
    3290:	6823      	ldr	r3, [r4, #0]
    3292:	1d08      	adds	r0, r1, #4
    3294:	9503      	str	r5, [sp, #12]
    3296:	6010      	str	r0, [r2, #0]
    3298:	061e      	lsls	r6, r3, #24
    329a:	d501      	bpl.n	32a0 <_printf_i+0xe8>
    329c:	680e      	ldr	r6, [r1, #0]
    329e:	e002      	b.n	32a6 <_printf_i+0xee>
    32a0:	0658      	lsls	r0, r3, #25
    32a2:	d5fb      	bpl.n	329c <_printf_i+0xe4>
    32a4:	880e      	ldrh	r6, [r1, #0]
    32a6:	07d9      	lsls	r1, r3, #31
    32a8:	d502      	bpl.n	32b0 <_printf_i+0xf8>
    32aa:	2220      	movs	r2, #32
    32ac:	4313      	orrs	r3, r2
    32ae:	6023      	str	r3, [r4, #0]
    32b0:	2710      	movs	r7, #16
    32b2:	2e00      	cmp	r6, #0
    32b4:	d103      	bne.n	32be <_printf_i+0x106>
    32b6:	6822      	ldr	r2, [r4, #0]
    32b8:	2320      	movs	r3, #32
    32ba:	439a      	bics	r2, r3
    32bc:	6022      	str	r2, [r4, #0]
    32be:	1c23      	adds	r3, r4, #0
    32c0:	2200      	movs	r2, #0
    32c2:	3343      	adds	r3, #67	; 0x43
    32c4:	701a      	strb	r2, [r3, #0]
    32c6:	e001      	b.n	32cc <_printf_i+0x114>
    32c8:	9303      	str	r3, [sp, #12]
    32ca:	270a      	movs	r7, #10
    32cc:	6863      	ldr	r3, [r4, #4]
    32ce:	60a3      	str	r3, [r4, #8]
    32d0:	2b00      	cmp	r3, #0
    32d2:	db03      	blt.n	32dc <_printf_i+0x124>
    32d4:	6825      	ldr	r5, [r4, #0]
    32d6:	2204      	movs	r2, #4
    32d8:	4395      	bics	r5, r2
    32da:	6025      	str	r5, [r4, #0]
    32dc:	2e00      	cmp	r6, #0
    32de:	d102      	bne.n	32e6 <_printf_i+0x12e>
    32e0:	9d04      	ldr	r5, [sp, #16]
    32e2:	2b00      	cmp	r3, #0
    32e4:	d00e      	beq.n	3304 <_printf_i+0x14c>
    32e6:	9d04      	ldr	r5, [sp, #16]
    32e8:	1c30      	adds	r0, r6, #0
    32ea:	1c39      	adds	r1, r7, #0
    32ec:	f003 faaa 	bl	6844 <__aeabi_uidivmod>
    32f0:	9803      	ldr	r0, [sp, #12]
    32f2:	3d01      	subs	r5, #1
    32f4:	5c43      	ldrb	r3, [r0, r1]
    32f6:	1c30      	adds	r0, r6, #0
    32f8:	702b      	strb	r3, [r5, #0]
    32fa:	1c39      	adds	r1, r7, #0
    32fc:	f003 fa5e 	bl	67bc <__aeabi_uidiv>
    3300:	1e06      	subs	r6, r0, #0
    3302:	d1f1      	bne.n	32e8 <_printf_i+0x130>
    3304:	2f08      	cmp	r7, #8
    3306:	d109      	bne.n	331c <_printf_i+0x164>
    3308:	6821      	ldr	r1, [r4, #0]
    330a:	07c9      	lsls	r1, r1, #31
    330c:	d506      	bpl.n	331c <_printf_i+0x164>
    330e:	6862      	ldr	r2, [r4, #4]
    3310:	6923      	ldr	r3, [r4, #16]
    3312:	429a      	cmp	r2, r3
    3314:	dc02      	bgt.n	331c <_printf_i+0x164>
    3316:	3d01      	subs	r5, #1
    3318:	2330      	movs	r3, #48	; 0x30
    331a:	702b      	strb	r3, [r5, #0]
    331c:	9e04      	ldr	r6, [sp, #16]
    331e:	1b73      	subs	r3, r6, r5
    3320:	6123      	str	r3, [r4, #16]
    3322:	e02a      	b.n	337a <_printf_i+0x1c2>
    3324:	6808      	ldr	r0, [r1, #0]
    3326:	6813      	ldr	r3, [r2, #0]
    3328:	6949      	ldr	r1, [r1, #20]
    332a:	0605      	lsls	r5, r0, #24
    332c:	d504      	bpl.n	3338 <_printf_i+0x180>
    332e:	1d18      	adds	r0, r3, #4
    3330:	6010      	str	r0, [r2, #0]
    3332:	681b      	ldr	r3, [r3, #0]
    3334:	6019      	str	r1, [r3, #0]
    3336:	e005      	b.n	3344 <_printf_i+0x18c>
    3338:	0646      	lsls	r6, r0, #25
    333a:	d5f8      	bpl.n	332e <_printf_i+0x176>
    333c:	1d18      	adds	r0, r3, #4
    333e:	6010      	str	r0, [r2, #0]
    3340:	681b      	ldr	r3, [r3, #0]
    3342:	8019      	strh	r1, [r3, #0]
    3344:	2300      	movs	r3, #0
    3346:	6123      	str	r3, [r4, #16]
    3348:	9d04      	ldr	r5, [sp, #16]
    334a:	e016      	b.n	337a <_printf_i+0x1c2>
    334c:	6813      	ldr	r3, [r2, #0]
    334e:	1d19      	adds	r1, r3, #4
    3350:	6011      	str	r1, [r2, #0]
    3352:	681d      	ldr	r5, [r3, #0]
    3354:	1c28      	adds	r0, r5, #0
    3356:	f7ff fa95 	bl	2884 <strlen>
    335a:	6863      	ldr	r3, [r4, #4]
    335c:	6120      	str	r0, [r4, #16]
    335e:	4298      	cmp	r0, r3
    3360:	d900      	bls.n	3364 <_printf_i+0x1ac>
    3362:	6123      	str	r3, [r4, #16]
    3364:	6920      	ldr	r0, [r4, #16]
    3366:	6060      	str	r0, [r4, #4]
    3368:	e004      	b.n	3374 <_printf_i+0x1bc>
    336a:	1c25      	adds	r5, r4, #0
    336c:	3542      	adds	r5, #66	; 0x42
    336e:	702b      	strb	r3, [r5, #0]
    3370:	2301      	movs	r3, #1
    3372:	6123      	str	r3, [r4, #16]
    3374:	9e04      	ldr	r6, [sp, #16]
    3376:	2300      	movs	r3, #0
    3378:	7033      	strb	r3, [r6, #0]
    337a:	9e07      	ldr	r6, [sp, #28]
    337c:	9805      	ldr	r0, [sp, #20]
    337e:	9600      	str	r6, [sp, #0]
    3380:	1c21      	adds	r1, r4, #0
    3382:	aa09      	add	r2, sp, #36	; 0x24
    3384:	9b06      	ldr	r3, [sp, #24]
    3386:	f7ff fea3 	bl	30d0 <_printf_common>
    338a:	3001      	adds	r0, #1
    338c:	d102      	bne.n	3394 <_printf_i+0x1dc>
    338e:	2001      	movs	r0, #1
    3390:	4240      	negs	r0, r0
    3392:	e021      	b.n	33d8 <_printf_i+0x220>
    3394:	1c2a      	adds	r2, r5, #0
    3396:	9805      	ldr	r0, [sp, #20]
    3398:	9906      	ldr	r1, [sp, #24]
    339a:	6923      	ldr	r3, [r4, #16]
    339c:	9d07      	ldr	r5, [sp, #28]
    339e:	47a8      	blx	r5
    33a0:	3001      	adds	r0, #1
    33a2:	d0f4      	beq.n	338e <_printf_i+0x1d6>
    33a4:	6826      	ldr	r6, [r4, #0]
    33a6:	07b6      	lsls	r6, r6, #30
    33a8:	d405      	bmi.n	33b6 <_printf_i+0x1fe>
    33aa:	9b09      	ldr	r3, [sp, #36]	; 0x24
    33ac:	68e0      	ldr	r0, [r4, #12]
    33ae:	4298      	cmp	r0, r3
    33b0:	da12      	bge.n	33d8 <_printf_i+0x220>
    33b2:	1c18      	adds	r0, r3, #0
    33b4:	e010      	b.n	33d8 <_printf_i+0x220>
    33b6:	2500      	movs	r5, #0
    33b8:	68e0      	ldr	r0, [r4, #12]
    33ba:	9909      	ldr	r1, [sp, #36]	; 0x24
    33bc:	1a43      	subs	r3, r0, r1
    33be:	429d      	cmp	r5, r3
    33c0:	daf3      	bge.n	33aa <_printf_i+0x1f2>
    33c2:	1c22      	adds	r2, r4, #0
    33c4:	9805      	ldr	r0, [sp, #20]
    33c6:	9906      	ldr	r1, [sp, #24]
    33c8:	3219      	adds	r2, #25
    33ca:	2301      	movs	r3, #1
    33cc:	9e07      	ldr	r6, [sp, #28]
    33ce:	47b0      	blx	r6
    33d0:	3001      	adds	r0, #1
    33d2:	d0dc      	beq.n	338e <_printf_i+0x1d6>
    33d4:	3501      	adds	r5, #1
    33d6:	e7ef      	b.n	33b8 <_printf_i+0x200>
    33d8:	b00b      	add	sp, #44	; 0x2c
    33da:	bdf0      	pop	{r4, r5, r6, r7, pc}
    33dc:	00008cbf 			; <UNDEFINED> instruction: 0x00008cbf
    33e0:	00008cd0 	ldrdeq	r8, [r0], -r0

000033e4 <_scanf_float>:
    33e4:	b5f0      	push	{r4, r5, r6, r7, lr}
    33e6:	b08b      	sub	sp, #44	; 0x2c
    33e8:	9306      	str	r3, [sp, #24]
    33ea:	688b      	ldr	r3, [r1, #8]
    33ec:	9004      	str	r0, [sp, #16]
    33ee:	1c0e      	adds	r6, r1, #0
    33f0:	1c17      	adds	r7, r2, #0
    33f2:	2000      	movs	r0, #0
    33f4:	22ae      	movs	r2, #174	; 0xae
    33f6:	1e59      	subs	r1, r3, #1
    33f8:	9003      	str	r0, [sp, #12]
    33fa:	0052      	lsls	r2, r2, #1
    33fc:	4291      	cmp	r1, r2
    33fe:	d905      	bls.n	340c <_scanf_float+0x28>
    3400:	3b5e      	subs	r3, #94	; 0x5e
    3402:	3bff      	subs	r3, #255	; 0xff
    3404:	9303      	str	r3, [sp, #12]
    3406:	235e      	movs	r3, #94	; 0x5e
    3408:	33ff      	adds	r3, #255	; 0xff
    340a:	60b3      	str	r3, [r6, #8]
    340c:	6831      	ldr	r1, [r6, #0]
    340e:	23f0      	movs	r3, #240	; 0xf0
    3410:	00db      	lsls	r3, r3, #3
    3412:	1c32      	adds	r2, r6, #0
    3414:	2500      	movs	r5, #0
    3416:	321c      	adds	r2, #28
    3418:	430b      	orrs	r3, r1
    341a:	6033      	str	r3, [r6, #0]
    341c:	9205      	str	r2, [sp, #20]
    341e:	1c14      	adds	r4, r2, #0
    3420:	9501      	str	r5, [sp, #4]
    3422:	9509      	str	r5, [sp, #36]	; 0x24
    3424:	9508      	str	r5, [sp, #32]
    3426:	9502      	str	r5, [sp, #8]
    3428:	9507      	str	r5, [sp, #28]
    342a:	68b2      	ldr	r2, [r6, #8]
    342c:	2a00      	cmp	r2, #0
    342e:	d100      	bne.n	3432 <_scanf_float+0x4e>
    3430:	e0e3      	b.n	35fa <_scanf_float+0x216>
    3432:	6838      	ldr	r0, [r7, #0]
    3434:	7803      	ldrb	r3, [r0, #0]
    3436:	2b49      	cmp	r3, #73	; 0x49
    3438:	d077      	beq.n	352a <_scanf_float+0x146>
    343a:	d818      	bhi.n	346e <_scanf_float+0x8a>
    343c:	2b39      	cmp	r3, #57	; 0x39
    343e:	d80d      	bhi.n	345c <_scanf_float+0x78>
    3440:	2b31      	cmp	r3, #49	; 0x31
    3442:	d242      	bcs.n	34ca <_scanf_float+0xe6>
    3444:	2b2d      	cmp	r3, #45	; 0x2d
    3446:	d049      	beq.n	34dc <_scanf_float+0xf8>
    3448:	d802      	bhi.n	3450 <_scanf_float+0x6c>
    344a:	2b2b      	cmp	r3, #43	; 0x2b
    344c:	d046      	beq.n	34dc <_scanf_float+0xf8>
    344e:	e0d4      	b.n	35fa <_scanf_float+0x216>
    3450:	2b2e      	cmp	r3, #46	; 0x2e
    3452:	d100      	bne.n	3456 <_scanf_float+0x72>
    3454:	e08d      	b.n	3572 <_scanf_float+0x18e>
    3456:	2b30      	cmp	r3, #48	; 0x30
    3458:	d025      	beq.n	34a6 <_scanf_float+0xc2>
    345a:	e0ce      	b.n	35fa <_scanf_float+0x216>
    345c:	2b45      	cmp	r3, #69	; 0x45
    345e:	d100      	bne.n	3462 <_scanf_float+0x7e>
    3460:	e090      	b.n	3584 <_scanf_float+0x1a0>
    3462:	2b46      	cmp	r3, #70	; 0x46
    3464:	d079      	beq.n	355a <_scanf_float+0x176>
    3466:	2b41      	cmp	r3, #65	; 0x41
    3468:	d000      	beq.n	346c <_scanf_float+0x88>
    346a:	e0c6      	b.n	35fa <_scanf_float+0x216>
    346c:	e058      	b.n	3520 <_scanf_float+0x13c>
    346e:	2b65      	cmp	r3, #101	; 0x65
    3470:	d100      	bne.n	3474 <_scanf_float+0x90>
    3472:	e087      	b.n	3584 <_scanf_float+0x1a0>
    3474:	d80a      	bhi.n	348c <_scanf_float+0xa8>
    3476:	2b54      	cmp	r3, #84	; 0x54
    3478:	d073      	beq.n	3562 <_scanf_float+0x17e>
    347a:	d802      	bhi.n	3482 <_scanf_float+0x9e>
    347c:	2b4e      	cmp	r3, #78	; 0x4e
    347e:	d035      	beq.n	34ec <_scanf_float+0x108>
    3480:	e0bb      	b.n	35fa <_scanf_float+0x216>
    3482:	2b59      	cmp	r3, #89	; 0x59
    3484:	d071      	beq.n	356a <_scanf_float+0x186>
    3486:	2b61      	cmp	r3, #97	; 0x61
    3488:	d04a      	beq.n	3520 <_scanf_float+0x13c>
    348a:	e0b6      	b.n	35fa <_scanf_float+0x216>
    348c:	2b6e      	cmp	r3, #110	; 0x6e
    348e:	d02d      	beq.n	34ec <_scanf_float+0x108>
    3490:	d804      	bhi.n	349c <_scanf_float+0xb8>
    3492:	2b66      	cmp	r3, #102	; 0x66
    3494:	d061      	beq.n	355a <_scanf_float+0x176>
    3496:	2b69      	cmp	r3, #105	; 0x69
    3498:	d047      	beq.n	352a <_scanf_float+0x146>
    349a:	e0ae      	b.n	35fa <_scanf_float+0x216>
    349c:	2b74      	cmp	r3, #116	; 0x74
    349e:	d060      	beq.n	3562 <_scanf_float+0x17e>
    34a0:	2b79      	cmp	r3, #121	; 0x79
    34a2:	d062      	beq.n	356a <_scanf_float+0x186>
    34a4:	e0a9      	b.n	35fa <_scanf_float+0x216>
    34a6:	6831      	ldr	r1, [r6, #0]
    34a8:	05c8      	lsls	r0, r1, #23
    34aa:	d50e      	bpl.n	34ca <_scanf_float+0xe6>
    34ac:	2380      	movs	r3, #128	; 0x80
    34ae:	4399      	bics	r1, r3
    34b0:	6031      	str	r1, [r6, #0]
    34b2:	9902      	ldr	r1, [sp, #8]
    34b4:	9b03      	ldr	r3, [sp, #12]
    34b6:	3101      	adds	r1, #1
    34b8:	9102      	str	r1, [sp, #8]
    34ba:	2b00      	cmp	r3, #0
    34bc:	d100      	bne.n	34c0 <_scanf_float+0xdc>
    34be:	e084      	b.n	35ca <_scanf_float+0x1e6>
    34c0:	3b01      	subs	r3, #1
    34c2:	3201      	adds	r2, #1
    34c4:	9303      	str	r3, [sp, #12]
    34c6:	60b2      	str	r2, [r6, #8]
    34c8:	e07f      	b.n	35ca <_scanf_float+0x1e6>
    34ca:	9801      	ldr	r0, [sp, #4]
    34cc:	1942      	adds	r2, r0, r5
    34ce:	2a00      	cmp	r2, #0
    34d0:	d000      	beq.n	34d4 <_scanf_float+0xf0>
    34d2:	e092      	b.n	35fa <_scanf_float+0x216>
    34d4:	4ab6      	ldr	r2, [pc, #728]	; (37b0 <_scanf_float+0x3cc>)
    34d6:	6831      	ldr	r1, [r6, #0]
    34d8:	400a      	ands	r2, r1
    34da:	e005      	b.n	34e8 <_scanf_float+0x104>
    34dc:	6832      	ldr	r2, [r6, #0]
    34de:	2180      	movs	r1, #128	; 0x80
    34e0:	420a      	tst	r2, r1
    34e2:	d100      	bne.n	34e6 <_scanf_float+0x102>
    34e4:	e089      	b.n	35fa <_scanf_float+0x216>
    34e6:	438a      	bics	r2, r1
    34e8:	6032      	str	r2, [r6, #0]
    34ea:	e06c      	b.n	35c6 <_scanf_float+0x1e2>
    34ec:	9a01      	ldr	r2, [sp, #4]
    34ee:	2a00      	cmp	r2, #0
    34f0:	d10e      	bne.n	3510 <_scanf_float+0x12c>
    34f2:	9802      	ldr	r0, [sp, #8]
    34f4:	2800      	cmp	r0, #0
    34f6:	d10e      	bne.n	3516 <_scanf_float+0x132>
    34f8:	6832      	ldr	r2, [r6, #0]
    34fa:	21e0      	movs	r1, #224	; 0xe0
    34fc:	00c9      	lsls	r1, r1, #3
    34fe:	1c10      	adds	r0, r2, #0
    3500:	4008      	ands	r0, r1
    3502:	4288      	cmp	r0, r1
    3504:	d107      	bne.n	3516 <_scanf_float+0x132>
    3506:	49ab      	ldr	r1, [pc, #684]	; (37b4 <_scanf_float+0x3d0>)
    3508:	400a      	ands	r2, r1
    350a:	6032      	str	r2, [r6, #0]
    350c:	2101      	movs	r1, #1
    350e:	e059      	b.n	35c4 <_scanf_float+0x1e0>
    3510:	9a01      	ldr	r2, [sp, #4]
    3512:	2a02      	cmp	r2, #2
    3514:	d053      	beq.n	35be <_scanf_float+0x1da>
    3516:	2d01      	cmp	r5, #1
    3518:	d01c      	beq.n	3554 <_scanf_float+0x170>
    351a:	2d04      	cmp	r5, #4
    351c:	d01a      	beq.n	3554 <_scanf_float+0x170>
    351e:	e06c      	b.n	35fa <_scanf_float+0x216>
    3520:	9801      	ldr	r0, [sp, #4]
    3522:	2801      	cmp	r0, #1
    3524:	d169      	bne.n	35fa <_scanf_float+0x216>
    3526:	2102      	movs	r1, #2
    3528:	e04c      	b.n	35c4 <_scanf_float+0x1e0>
    352a:	2d00      	cmp	r5, #0
    352c:	d10e      	bne.n	354c <_scanf_float+0x168>
    352e:	9902      	ldr	r1, [sp, #8]
    3530:	2900      	cmp	r1, #0
    3532:	d165      	bne.n	3600 <_scanf_float+0x21c>
    3534:	6832      	ldr	r2, [r6, #0]
    3536:	21e0      	movs	r1, #224	; 0xe0
    3538:	00c9      	lsls	r1, r1, #3
    353a:	1c10      	adds	r0, r2, #0
    353c:	4008      	ands	r0, r1
    353e:	4288      	cmp	r0, r1
    3540:	d162      	bne.n	3608 <_scanf_float+0x224>
    3542:	499c      	ldr	r1, [pc, #624]	; (37b4 <_scanf_float+0x3d0>)
    3544:	2501      	movs	r5, #1
    3546:	400a      	ands	r2, r1
    3548:	6032      	str	r2, [r6, #0]
    354a:	e03c      	b.n	35c6 <_scanf_float+0x1e2>
    354c:	2d03      	cmp	r5, #3
    354e:	d001      	beq.n	3554 <_scanf_float+0x170>
    3550:	2d05      	cmp	r5, #5
    3552:	d152      	bne.n	35fa <_scanf_float+0x216>
    3554:	3501      	adds	r5, #1
    3556:	b2ed      	uxtb	r5, r5
    3558:	e035      	b.n	35c6 <_scanf_float+0x1e2>
    355a:	2d02      	cmp	r5, #2
    355c:	d14d      	bne.n	35fa <_scanf_float+0x216>
    355e:	2503      	movs	r5, #3
    3560:	e031      	b.n	35c6 <_scanf_float+0x1e2>
    3562:	2d06      	cmp	r5, #6
    3564:	d149      	bne.n	35fa <_scanf_float+0x216>
    3566:	2507      	movs	r5, #7
    3568:	e02d      	b.n	35c6 <_scanf_float+0x1e2>
    356a:	2d07      	cmp	r5, #7
    356c:	d145      	bne.n	35fa <_scanf_float+0x216>
    356e:	2508      	movs	r5, #8
    3570:	e029      	b.n	35c6 <_scanf_float+0x1e2>
    3572:	6832      	ldr	r2, [r6, #0]
    3574:	0590      	lsls	r0, r2, #22
    3576:	d540      	bpl.n	35fa <_scanf_float+0x216>
    3578:	498f      	ldr	r1, [pc, #572]	; (37b8 <_scanf_float+0x3d4>)
    357a:	400a      	ands	r2, r1
    357c:	9902      	ldr	r1, [sp, #8]
    357e:	6032      	str	r2, [r6, #0]
    3580:	9107      	str	r1, [sp, #28]
    3582:	e020      	b.n	35c6 <_scanf_float+0x1e2>
    3584:	6832      	ldr	r2, [r6, #0]
    3586:	20a0      	movs	r0, #160	; 0xa0
    3588:	00c0      	lsls	r0, r0, #3
    358a:	2180      	movs	r1, #128	; 0x80
    358c:	4010      	ands	r0, r2
    358e:	00c9      	lsls	r1, r1, #3
    3590:	4288      	cmp	r0, r1
    3592:	d004      	beq.n	359e <_scanf_float+0x1ba>
    3594:	420a      	tst	r2, r1
    3596:	d030      	beq.n	35fa <_scanf_float+0x216>
    3598:	9802      	ldr	r0, [sp, #8]
    359a:	2800      	cmp	r0, #0
    359c:	d034      	beq.n	3608 <_scanf_float+0x224>
    359e:	0591      	lsls	r1, r2, #22
    35a0:	d404      	bmi.n	35ac <_scanf_float+0x1c8>
    35a2:	9802      	ldr	r0, [sp, #8]
    35a4:	9907      	ldr	r1, [sp, #28]
    35a6:	9409      	str	r4, [sp, #36]	; 0x24
    35a8:	1a40      	subs	r0, r0, r1
    35aa:	9008      	str	r0, [sp, #32]
    35ac:	4981      	ldr	r1, [pc, #516]	; (37b4 <_scanf_float+0x3d0>)
    35ae:	400a      	ands	r2, r1
    35b0:	21c0      	movs	r1, #192	; 0xc0
    35b2:	0049      	lsls	r1, r1, #1
    35b4:	430a      	orrs	r2, r1
    35b6:	6032      	str	r2, [r6, #0]
    35b8:	2200      	movs	r2, #0
    35ba:	9202      	str	r2, [sp, #8]
    35bc:	e003      	b.n	35c6 <_scanf_float+0x1e2>
    35be:	2003      	movs	r0, #3
    35c0:	9001      	str	r0, [sp, #4]
    35c2:	e000      	b.n	35c6 <_scanf_float+0x1e2>
    35c4:	9101      	str	r1, [sp, #4]
    35c6:	7023      	strb	r3, [r4, #0]
    35c8:	3401      	adds	r4, #1
    35ca:	68b3      	ldr	r3, [r6, #8]
    35cc:	3b01      	subs	r3, #1
    35ce:	60b3      	str	r3, [r6, #8]
    35d0:	6933      	ldr	r3, [r6, #16]
    35d2:	3301      	adds	r3, #1
    35d4:	6133      	str	r3, [r6, #16]
    35d6:	687b      	ldr	r3, [r7, #4]
    35d8:	3b01      	subs	r3, #1
    35da:	607b      	str	r3, [r7, #4]
    35dc:	2b00      	cmp	r3, #0
    35de:	dd03      	ble.n	35e8 <_scanf_float+0x204>
    35e0:	683b      	ldr	r3, [r7, #0]
    35e2:	3301      	adds	r3, #1
    35e4:	603b      	str	r3, [r7, #0]
    35e6:	e720      	b.n	342a <_scanf_float+0x46>
    35e8:	23c0      	movs	r3, #192	; 0xc0
    35ea:	005b      	lsls	r3, r3, #1
    35ec:	58f3      	ldr	r3, [r6, r3]
    35ee:	9804      	ldr	r0, [sp, #16]
    35f0:	1c39      	adds	r1, r7, #0
    35f2:	4798      	blx	r3
    35f4:	2800      	cmp	r0, #0
    35f6:	d100      	bne.n	35fa <_scanf_float+0x216>
    35f8:	e717      	b.n	342a <_scanf_float+0x46>
    35fa:	9a02      	ldr	r2, [sp, #8]
    35fc:	2a00      	cmp	r2, #0
    35fe:	d003      	beq.n	3608 <_scanf_float+0x224>
    3600:	6830      	ldr	r0, [r6, #0]
    3602:	4b6e      	ldr	r3, [pc, #440]	; (37bc <_scanf_float+0x3d8>)
    3604:	4003      	ands	r3, r0
    3606:	6033      	str	r3, [r6, #0]
    3608:	9b01      	ldr	r3, [sp, #4]
    360a:	3b01      	subs	r3, #1
    360c:	2b01      	cmp	r3, #1
    360e:	d811      	bhi.n	3634 <_scanf_float+0x250>
    3610:	9905      	ldr	r1, [sp, #20]
    3612:	428c      	cmp	r4, r1
    3614:	d90b      	bls.n	362e <_scanf_float+0x24a>
    3616:	23be      	movs	r3, #190	; 0xbe
    3618:	3c01      	subs	r4, #1
    361a:	005b      	lsls	r3, r3, #1
    361c:	58f3      	ldr	r3, [r6, r3]
    361e:	7821      	ldrb	r1, [r4, #0]
    3620:	9804      	ldr	r0, [sp, #16]
    3622:	1c3a      	adds	r2, r7, #0
    3624:	4798      	blx	r3
    3626:	6933      	ldr	r3, [r6, #16]
    3628:	3b01      	subs	r3, #1
    362a:	6133      	str	r3, [r6, #16]
    362c:	e7f0      	b.n	3610 <_scanf_float+0x22c>
    362e:	2201      	movs	r2, #1
    3630:	9201      	str	r2, [sp, #4]
    3632:	e0ba      	b.n	37aa <_scanf_float+0x3c6>
    3634:	1e6b      	subs	r3, r5, #1
    3636:	2b06      	cmp	r3, #6
    3638:	d82a      	bhi.n	3690 <_scanf_float+0x2ac>
    363a:	2d02      	cmp	r5, #2
    363c:	d919      	bls.n	3672 <_scanf_float+0x28e>
    363e:	9401      	str	r4, [sp, #4]
    3640:	1b2b      	subs	r3, r5, r4
    3642:	9801      	ldr	r0, [sp, #4]
